(lp0
(S'cppflags'
p1
ccopy_reg
_reconstructor
p2
(cino.utils
SpaceList
p3
c__builtin__
list
p4
(lp5
S'-mmcu=atmega328p'
p6
aS'-DF_CPU=16000000L'
p7
aS'-DARDUINO=105'
p8
aS'-I/usr/share/arduino/hardware/arduino/cores/arduino'
p9
aS'-ffunction-sections'
p10
aS'-fdata-sections'
p11
aS'-g'
p12
aS'-Os'
p13
aS'-w'
p14
aS'-I/usr/share/arduino/hardware/arduino/variants/standard'
p15
aS'-I/usr/share/arduino/hardware/arduino/cores/arduino'
p16
aS'-I/usr/share/arduino/hardware/arduino/cores/arduino/avr-libc'
p17
aS'-Ilib/ros_lib'
p18
aS'-Ilib/ros_lib/tests'
p19
aS'-Ilib/ros_lib/rospy_tutorials'
p20
aS'-Ilib/ros_lib/actionlib'
p21
aS'-Ilib/ros_lib/turtle_actionlib'
p22
aS'-Ilib/ros_lib/bond'
p23
aS'-Ilib/ros_lib/rosgraph_msgs'
p24
aS'-Ilib/ros_lib/zeroconf_msgs'
p25
aS'-Ilib/ros_lib/pcl_msgs'
p26
aS'-Ilib/ros_lib/gateway_msgs'
p27
aS'-Ilib/ros_lib/capabilities'
p28
aS'-Ilib/ros_lib/rocon_std_msgs'
p29
aS'-Ilib/ros_lib/polled_camera'
p30
aS'-Ilib/ros_lib/base_local_planner'
p31
aS'-Ilib/ros_lib/actionlib_tutorials'
p32
aS'-Ilib/ros_lib/image_recognition_msgs'
p33
aS'-Ilib/ros_lib/create_node'
p34
aS'-Ilib/ros_lib/rocon_interaction_msgs'
p35
aS'-Ilib/ros_lib/navfn'
p36
aS'-Ilib/ros_lib/statistics_msgs'
p37
aS'-Ilib/ros_lib/roscpp_tutorials'
p38
aS'-Ilib/ros_lib/turtlesim'
p39
aS'-Ilib/ros_lib/map_msgs'
p40
aS'-Ilib/ros_lib/robot_pose_ekf'
p41
aS'-Ilib/ros_lib/theora_image_transport'
p42
aS'-Ilib/ros_lib/stereo_msgs'
p43
aS'-Ilib/ros_lib/rosserial_mbed'
p44
aS'-Ilib/ros_lib/roscpp'
p45
aS'-Ilib/ros_lib/nodelet'
p46
aS'-Ilib/ros_lib/image_exposure_msgs'
p47
aS'-Ilib/ros_lib/multimaster_msgs'
p48
aS'-Ilib/ros_lib/twist_mux_msgs'
p49
aS'-Ilib/ros_lib/kobuki_msgs'
p50
aS'-Ilib/ros_lib/uuid_msgs'
p51
aS'-Ilib/ros_lib/control_msgs'
p52
aS'-Ilib/ros_lib/actionlib_msgs'
p53
aS'-Ilib/ros_lib/topic_tools'
p54
aS'-Ilib/ros_lib/calibration_msgs'
p55
aS'-Ilib/ros_lib/move_base_msgs'
p56
aS'-Ilib/ros_lib/opencv_apps'
p57
aS'-Ilib/ros_lib/dynamic_reconfigure'
p58
aS'-Ilib/ros_lib/smach_msgs'
p59
aS'-Ilib/ros_lib/rocon_service_pair_msgs'
p60
aS'-Ilib/ros_lib/realsense2_camera'
p61
aS'-Ilib/ros_lib/tf2_msgs'
p62
aS'-Ilib/ros_lib/robot_localization'
p63
aS'-Ilib/ros_lib/multimaster_msgs_fkie'
p64
aS'-Ilib/ros_lib/shape_msgs'
p65
aS'-Ilib/ros_lib/rosserial_arduino'
p66
aS'-Ilib/ros_lib/visualization_msgs'
p67
aS'-Ilib/ros_lib/nav_msgs'
p68
aS'-Ilib/ros_lib/geometry_msgs'
p69
aS'-Ilib/ros_lib/rocon_app_manager_msgs'
p70
aS'-Ilib/ros_lib/diagnostic_msgs'
p71
aS'-Ilib/ros_lib/trajectory_msgs'
p72
aS'-Ilib/ros_lib/ros'
p73
aS'-Ilib/ros_lib/std_msgs'
p74
aS'-Ilib/ros_lib/costmap_2d'
p75
aS'-Ilib/ros_lib/sensor_msgs'
p76
aS'-Ilib/ros_lib/controller_manager_msgs'
p77
aS'-Ilib/ros_lib/laser_assembler'
p78
aS'-Ilib/ros_lib/rosserial_msgs'
p79
aS'-Ilib/ros_lib/geographic_msgs'
p80
aS'-Ilib/ros_lib/tf'
p81
aS'-Ilib/ros_lib/gazebo_msgs'
p82
aS'-Ilib/ros_lib/image_cb_detector'
p83
aS'-Ilib/ros_lib/control_toolbox'
p84
aS'-Ilib/ros_lib/std_srvs'
p85
aS'-Ilib/ros_lib/tests/array_test'
p86
aS'-Ilib/ros_lib/tests/time_test'
p87
aS'-Ilib/ros_lib/tests/float64_test'
p88
atp89
Rp90
tp91
a(S'cxx'
p92
S'/usr/share/arduino/hardware/tools/avr/bin/avr-g++'
p93
tp94
a(S'arduino_libraries_dir'
p95
S'/usr/share/arduino/libraries'
p96
tp97
a(S'avrdude'
p98
S'/usr/share/arduino/hardware/tools/avrdude'
p99
tp100
a(S'ar'
p101
S'/usr/share/arduino/hardware/tools/avr/bin/avr-ar'
p102
tp103
a(S'names'
p104
(dp105
S'cpp'
p106
S'%s.cpp'
p107
sS'obj'
p108
S'%s.o'
p109
sS'deps'
p110
S'%s.d'
p111
sS'lib'
p112
S'lib%s.a'
p113
stp114
a(S'ldflags'
p115
g2
(g3
g4
(lp116
g6
aS'-Wl,-Os'
p117
aS'-Wl,--gc-sections'
p118
atp119
Rp120
tp121
a(S'arduino_lib_version'
p122
g2
(cino.environment
Version
p123
c__builtin__
tuple
p124
(I1
I0
I5
tp125
tp126
Rp127
tp128
a(S'objcopy'
p129
S'/usr/share/arduino/hardware/tools/avr/bin/avr-objcopy'
p130
tp131
a(S'board_models'
p132
cino.environment
BoardModels
p133
((lp134
(lp135
S'uno'
p136
a(dp137
S'bootloader'
p138
(dp139
S'extended_fuses'
p140
S'0x05'
p141
sS'high_fuses'
p142
S'0xde'
p143
sS'low_fuses'
p144
S'0xff'
p145
sS'lock_bits'
p146
S'0x0F'
p147
sS'file'
p148
S'optiboot_atmega328.hex'
p149
sS'path'
p150
S'optiboot'
p151
sS'unlock_bits'
p152
S'0x3F'
p153
ssS'build'
p154
(dp155
S'core'
p156
S'arduino'
p157
sS'mcu'
p158
S'atmega328p'
p159
sS'f_cpu'
p160
S'16000000L'
p161
sS'variant'
p162
S'standard'
p163
ssS'name'
p164
S'Arduino Uno'
p165
sS'upload'
p166
(dp167
S'speed'
p168
S'115200'
p169
sS'maximum_size'
p170
S'32256'
p171
sS'protocol'
p172
S'arduino'
p173
ssaa(lp174
S'atmega328'
p175
a(dp176
S'bootloader'
p177
(dp178
S'extended_fuses'
p179
S'0x05'
p180
sS'high_fuses'
p181
S'0xDA'
p182
sS'low_fuses'
p183
S'0xFF'
p184
sS'lock_bits'
p185
S'0x0F'
p186
sS'file'
p187
S'ATmegaBOOT_168_atmega328.hex'
p188
sS'path'
p189
S'atmega'
p190
sS'unlock_bits'
p191
S'0x3F'
p192
ssS'build'
p193
(dp194
S'core'
p195
S'arduino'
p196
sS'mcu'
p197
S'atmega328p'
p198
sS'f_cpu'
p199
S'16000000L'
p200
sS'variant'
p201
S'standard'
p202
ssS'name'
p203
S'Arduino Duemilanove w/ ATmega328'
p204
sS'upload'
p205
(dp206
S'speed'
p207
S'57600'
p208
sS'maximum_size'
p209
S'30720'
p210
sS'protocol'
p211
S'arduino'
p212
ssaa(lp213
S'diecimila'
p214
a(dp215
S'bootloader'
p216
(dp217
S'extended_fuses'
p218
S'0x00'
p219
sS'high_fuses'
p220
S'0xdd'
p221
sS'low_fuses'
p222
S'0xff'
p223
sS'lock_bits'
p224
S'0x0F'
p225
sS'file'
p226
S'ATmegaBOOT_168_diecimila.hex'
p227
sS'path'
p228
S'atmega'
p229
sS'unlock_bits'
p230
S'0x3F'
p231
ssS'build'
p232
(dp233
S'core'
p234
S'arduino'
p235
sS'mcu'
p236
S'atmega168'
p237
sS'f_cpu'
p238
S'16000000L'
p239
sS'variant'
p240
S'standard'
p241
ssS'name'
p242
S'Arduino Diecimila or Duemilanove w/ ATmega168'
p243
sS'upload'
p244
(dp245
S'speed'
p246
S'19200'
p247
sS'maximum_size'
p248
S'14336'
p249
sS'protocol'
p250
S'arduino'
p251
ssaa(lp252
S'nano328'
p253
a(dp254
S'bootloader'
p255
(dp256
S'extended_fuses'
p257
S'0x05'
p258
sS'high_fuses'
p259
S'0xDA'
p260
sS'low_fuses'
p261
S'0xFF'
p262
sS'lock_bits'
p263
S'0x0F'
p264
sS'file'
p265
S'ATmegaBOOT_168_atmega328.hex'
p266
sS'path'
p267
S'atmega'
p268
sS'unlock_bits'
p269
S'0x3F'
p270
ssS'build'
p271
(dp272
S'core'
p273
S'arduino'
p274
sS'mcu'
p275
S'atmega328p'
p276
sS'f_cpu'
p277
S'16000000L'
p278
sS'variant'
p279
S'eightanaloginputs'
p280
ssS'name'
p281
S'Arduino Nano w/ ATmega328'
p282
sS'upload'
p283
(dp284
S'speed'
p285
S'57600'
p286
sS'maximum_size'
p287
S'30720'
p288
sS'protocol'
p289
S'arduino'
p290
ssaa(lp291
S'nano'
p292
a(dp293
S'bootloader'
p294
(dp295
S'extended_fuses'
p296
S'0x00'
p297
sS'high_fuses'
p298
S'0xdd'
p299
sS'low_fuses'
p300
S'0xff'
p301
sS'lock_bits'
p302
S'0x0F'
p303
sS'file'
p304
S'ATmegaBOOT_168_diecimila.hex'
p305
sS'path'
p306
S'atmega'
p307
sS'unlock_bits'
p308
S'0x3F'
p309
ssS'build'
p310
(dp311
S'core'
p312
S'arduino'
p313
sS'mcu'
p314
S'atmega168'
p315
sS'f_cpu'
p316
S'16000000L'
p317
sS'variant'
p318
S'eightanaloginputs'
p319
ssS'name'
p320
S'Arduino Nano w/ ATmega168'
p321
sS'upload'
p322
(dp323
S'speed'
p324
S'19200'
p325
sS'maximum_size'
p326
S'14336'
p327
sS'protocol'
p328
S'arduino'
p329
ssaa(lp330
S'mega2560'
p331
a(dp332
S'bootloader'
p333
(dp334
S'extended_fuses'
p335
S'0xFD'
p336
sS'high_fuses'
p337
S'0xD8'
p338
sS'low_fuses'
p339
S'0xFF'
p340
sS'lock_bits'
p341
S'0x0F'
p342
sS'file'
p343
S'stk500boot_v2_mega2560.hex'
p344
sS'path'
p345
S'stk500v2'
p346
sS'unlock_bits'
p347
S'0x3F'
p348
ssS'build'
p349
(dp350
S'core'
p351
S'arduino'
p352
sS'mcu'
p353
S'atmega2560'
p354
sS'f_cpu'
p355
S'16000000L'
p356
sS'variant'
p357
S'mega'
p358
ssS'name'
p359
S'Arduino Mega 2560 or Mega ADK'
p360
sS'upload'
p361
(dp362
S'speed'
p363
S'115200'
p364
sS'maximum_size'
p365
S'258048'
p366
sS'protocol'
p367
S'wiring'
p368
ssaa(lp369
S'mega'
p370
a(dp371
S'bootloader'
p372
(dp373
S'extended_fuses'
p374
S'0xF5'
p375
sS'high_fuses'
p376
S'0xDA'
p377
sS'low_fuses'
p378
S'0xFF'
p379
sS'lock_bits'
p380
S'0x0F'
p381
sS'file'
p382
S'ATmegaBOOT_168_atmega1280.hex'
p383
sS'path'
p384
S'atmega'
p385
sS'unlock_bits'
p386
S'0x3F'
p387
ssS'build'
p388
(dp389
S'core'
p390
S'arduino'
p391
sS'mcu'
p392
S'atmega1280'
p393
sS'f_cpu'
p394
S'16000000L'
p395
sS'variant'
p396
S'mega'
p397
ssS'name'
p398
S'Arduino Mega (ATmega1280)'
p399
sS'upload'
p400
(dp401
S'speed'
p402
S'57600'
p403
sS'maximum_size'
p404
S'126976'
p405
sS'protocol'
p406
S'arduino'
p407
ssaa(lp408
S'leonardo'
p409
a(dp410
S'bootloader'
p411
(dp412
S'extended_fuses'
p413
S'0xcb'
p414
sS'high_fuses'
p415
S'0xd8'
p416
sS'low_fuses'
p417
S'0xff'
p418
sS'lock_bits'
p419
S'0x2F'
p420
sS'file'
p421
S'Caterina-Leonardo.hex'
p422
sS'path'
p423
S'caterina'
p424
sS'unlock_bits'
p425
S'0x3F'
p426
ssS'build'
p427
(dp428
S'core'
p429
S'arduino'
p430
sS'f_cpu'
p431
S'16000000L'
p432
sS'vid'
p433
S'0x2341'
p434
sS'pid'
p435
S'0x8036'
p436
sS'variant'
p437
S'leonardo'
p438
sS'mcu'
p439
S'atmega32u4'
p440
ssS'name'
p441
S'Arduino Leonardo'
p442
sS'upload'
p443
(dp444
S'speed'
p445
S'57600'
p446
sS'maximum_size'
p447
S'28672'
p448
sS'protocol'
p449
S'avr109'
p450
sS'disable_flushing'
p451
S'true'
p452
ssaa(lp453
S'esplora'
p454
a(dp455
S'bootloader'
p456
(dp457
S'extended_fuses'
p458
S'0xcb'
p459
sS'high_fuses'
p460
S'0xd8'
p461
sS'low_fuses'
p462
S'0xff'
p463
sS'lock_bits'
p464
S'0x2F'
p465
sS'file'
p466
S'Caterina-Esplora.hex'
p467
sS'path'
p468
S'caterina'
p469
sS'unlock_bits'
p470
S'0x3F'
p471
ssS'build'
p472
(dp473
S'core'
p474
S'arduino'
p475
sS'f_cpu'
p476
S'16000000L'
p477
sS'vid'
p478
S'0x2341'
p479
sS'pid'
p480
S'0x803C'
p481
sS'variant'
p482
S'leonardo'
p483
sS'mcu'
p484
S'atmega32u4'
p485
ssS'name'
p486
S'Arduino Esplora'
p487
sS'upload'
p488
(dp489
S'speed'
p490
S'57600'
p491
sS'maximum_size'
p492
S'28672'
p493
sS'protocol'
p494
S'avr109'
p495
sS'disable_flushing'
p496
S'true'
p497
ssaa(lp498
S'micro'
p499
a(dp500
S'bootloader'
p501
(dp502
S'extended_fuses'
p503
S'0xcb'
p504
sS'high_fuses'
p505
S'0xd8'
p506
sS'low_fuses'
p507
S'0xff'
p508
sS'lock_bits'
p509
S'0x2F'
p510
sS'file'
p511
S'Caterina-Micro.hex'
p512
sS'path'
p513
S'caterina'
p514
sS'unlock_bits'
p515
S'0x3F'
p516
ssS'build'
p517
(dp518
S'core'
p519
S'arduino'
p520
sS'f_cpu'
p521
S'16000000L'
p522
sS'vid'
p523
S'0x2341'
p524
sS'pid'
p525
S'0x8037'
p526
sS'variant'
p527
S'micro'
p528
sS'mcu'
p529
S'atmega32u4'
p530
ssS'name'
p531
S'Arduino Micro'
p532
sS'upload'
p533
(dp534
S'speed'
p535
S'57600'
p536
sS'maximum_size'
p537
S'28672'
p538
sS'protocol'
p539
S'avr109'
p540
sS'disable_flushing'
p541
S'true'
p542
ssaa(lp543
S'mini328'
p544
a(dp545
S'bootloader'
p546
(dp547
S'extended_fuses'
p548
S'0x05'
p549
sS'high_fuses'
p550
S'0xd8'
p551
sS'low_fuses'
p552
S'0xff'
p553
sS'lock_bits'
p554
S'0x0F'
p555
sS'file'
p556
S'optiboot_atmega328-Mini.hex'
p557
sS'path'
p558
S'optiboot'
p559
sS'unlock_bits'
p560
S'0x3F'
p561
ssS'build'
p562
(dp563
S'core'
p564
S'arduino'
p565
sS'mcu'
p566
S'atmega328p'
p567
sS'f_cpu'
p568
S'16000000L'
p569
sS'variant'
p570
S'eightanaloginputs'
p571
ssS'name'
p572
S'Arduino Mini w/ ATmega328'
p573
sS'upload'
p574
(dp575
S'speed'
p576
S'115200'
p577
sS'maximum_size'
p578
S'28672'
p579
sS'protocol'
p580
S'arduino'
p581
ssaa(lp582
S'mini'
p583
a(dp584
S'bootloader'
p585
(dp586
S'extended_fuses'
p587
S'0x00'
p588
sS'high_fuses'
p589
S'0xdd'
p590
sS'low_fuses'
p591
S'0xff'
p592
sS'lock_bits'
p593
S'0x0F'
p594
sS'file'
p595
S'ATmegaBOOT_168_ng.hex'
p596
sS'path'
p597
S'atmega'
p598
sS'unlock_bits'
p599
S'0x3F'
p600
ssS'build'
p601
(dp602
S'core'
p603
S'arduino'
p604
sS'mcu'
p605
S'atmega168'
p606
sS'f_cpu'
p607
S'16000000L'
p608
sS'variant'
p609
S'eightanaloginputs'
p610
ssS'name'
p611
S'Arduino Mini w/ ATmega168'
p612
sS'upload'
p613
(dp614
S'speed'
p615
S'19200'
p616
sS'maximum_size'
p617
S'14336'
p618
sS'protocol'
p619
S'arduino'
p620
ssaa(lp621
S'ethernet'
p622
a(dp623
S'bootloader'
p624
(dp625
S'extended_fuses'
p626
S'0x05'
p627
sS'high_fuses'
p628
S'0xde'
p629
sS'low_fuses'
p630
S'0xff'
p631
sS'lock_bits'
p632
S'0x0F'
p633
sS'file'
p634
S'optiboot_atmega328.hex'
p635
sS'path'
p636
S'optiboot'
p637
sS'unlock_bits'
p638
S'0x3F'
p639
ssS'build'
p640
(dp641
S'f_cpu'
p642
S'16000000L'
p643
sS'mcu'
p644
S'atmega328p'
p645
sS'variant'
p646
S'standard'
p647
sS'core'
p648
S'arduino'
p649
ssS'name'
p650
S'Arduino Ethernet'
p651
sS'upload'
p652
(dp653
S'speed'
p654
S'115200'
p655
sS'maximum_size'
p656
S'32256'
p657
sS'protocol'
p658
S'arduino'
p659
ssaa(lp660
S'fio'
p661
a(dp662
S'bootloader'
p663
(dp664
S'extended_fuses'
p665
S'0x05'
p666
sS'high_fuses'
p667
S'0xDA'
p668
sS'low_fuses'
p669
S'0xFF'
p670
sS'lock_bits'
p671
S'0x0F'
p672
sS'file'
p673
S'ATmegaBOOT_168_atmega328_pro_8MHz.hex'
p674
sS'path'
p675
S'arduino:atmega'
p676
sS'unlock_bits'
p677
S'0x3F'
p678
ssS'build'
p679
(dp680
S'core'
p681
S'arduino'
p682
sS'mcu'
p683
S'atmega328p'
p684
sS'f_cpu'
p685
S'8000000L'
p686
sS'variant'
p687
S'eightanaloginputs'
p688
ssS'name'
p689
S'Arduino Fio'
p690
sS'upload'
p691
(dp692
S'speed'
p693
S'57600'
p694
sS'maximum_size'
p695
S'30720'
p696
sS'protocol'
p697
S'arduino'
p698
ssaa(lp699
S'bt328'
p700
a(dp701
S'bootloader'
p702
(dp703
S'extended_fuses'
p704
S'0x05'
p705
sS'high_fuses'
p706
S'0xd8'
p707
sS'low_fuses'
p708
S'0xff'
p709
sS'lock_bits'
p710
S'0x0F'
p711
sS'file'
p712
S'ATmegaBOOT_168_atmega328_bt.hex'
p713
sS'path'
p714
S'bt'
p715
sS'unlock_bits'
p716
S'0x3F'
p717
ssS'build'
p718
(dp719
S'core'
p720
S'arduino'
p721
sS'mcu'
p722
S'atmega328p'
p723
sS'f_cpu'
p724
S'16000000L'
p725
sS'variant'
p726
S'eightanaloginputs'
p727
ssS'name'
p728
S'Arduino BT w/ ATmega328'
p729
sS'upload'
p730
(dp731
S'speed'
p732
S'19200'
p733
sS'maximum_size'
p734
S'28672'
p735
sS'protocol'
p736
S'arduino'
p737
sS'disable_flushing'
p738
S'true'
p739
ssaa(lp740
S'bt'
p741
a(dp742
S'bootloader'
p743
(dp744
S'extended_fuses'
p745
S'0x00'
p746
sS'high_fuses'
p747
S'0xdd'
p748
sS'low_fuses'
p749
S'0xff'
p750
sS'lock_bits'
p751
S'0x0F'
p752
sS'file'
p753
S'ATmegaBOOT_168.hex'
p754
sS'path'
p755
S'bt'
p756
sS'unlock_bits'
p757
S'0x3F'
p758
ssS'build'
p759
(dp760
S'core'
p761
S'arduino'
p762
sS'mcu'
p763
S'atmega168'
p764
sS'f_cpu'
p765
S'16000000L'
p766
sS'variant'
p767
S'eightanaloginputs'
p768
ssS'name'
p769
S'Arduino BT w/ ATmega168'
p770
sS'upload'
p771
(dp772
S'speed'
p773
S'19200'
p774
sS'maximum_size'
p775
S'14336'
p776
sS'protocol'
p777
S'arduino'
p778
sS'disable_flushing'
p779
S'true'
p780
ssaa(lp781
S'LilyPadUSB'
p782
a(dp783
S'bootloader'
p784
(dp785
S'extended_fuses'
p786
S'0xce'
p787
sS'high_fuses'
p788
S'0xd8'
p789
sS'low_fuses'
p790
S'0xff'
p791
sS'lock_bits'
p792
S'0x2F'
p793
sS'file'
p794
S'Caterina-LilyPadUSB.hex'
p795
sS'path'
p796
S'caterina-LilyPadUSB'
p797
sS'unlock_bits'
p798
S'0x3F'
p799
ssS'build'
p800
(dp801
S'core'
p802
S'arduino'
p803
sS'f_cpu'
p804
S'8000000L'
p805
sS'vid'
p806
S'0x1B4F'
p807
sS'pid'
p808
S'0x9208'
p809
sS'variant'
p810
S'leonardo'
p811
sS'mcu'
p812
S'atmega32u4'
p813
ssS'name'
p814
S'LilyPad Arduino USB'
p815
sS'upload'
p816
(dp817
S'speed'
p818
S'57600'
p819
sS'maximum_size'
p820
S'28672'
p821
sS'protocol'
p822
S'avr109'
p823
sS'disable_flushing'
p824
S'true'
p825
ssaa(lp826
S'lilypad328'
p827
a(dp828
S'bootloader'
p829
(dp830
S'extended_fuses'
p831
S'0x05'
p832
sS'high_fuses'
p833
S'0xDA'
p834
sS'low_fuses'
p835
S'0xFF'
p836
sS'lock_bits'
p837
S'0x0F'
p838
sS'file'
p839
S'ATmegaBOOT_168_atmega328_pro_8MHz.hex'
p840
sS'path'
p841
S'atmega'
p842
sS'unlock_bits'
p843
S'0x3F'
p844
ssS'build'
p845
(dp846
S'core'
p847
S'arduino'
p848
sS'mcu'
p849
S'atmega328p'
p850
sS'f_cpu'
p851
S'8000000L'
p852
sS'variant'
p853
S'standard'
p854
ssS'name'
p855
S'LilyPad Arduino w/ ATmega328'
p856
sS'upload'
p857
(dp858
S'speed'
p859
S'57600'
p860
sS'maximum_size'
p861
S'30720'
p862
sS'protocol'
p863
S'arduino'
p864
ssaa(lp865
S'lilypad'
p866
a(dp867
S'bootloader'
p868
(dp869
S'extended_fuses'
p870
S'0x00'
p871
sS'high_fuses'
p872
S'0xdd'
p873
sS'low_fuses'
p874
S'0xe2'
p875
sS'lock_bits'
p876
S'0x0F'
p877
sS'file'
p878
S'LilyPadBOOT_168.hex'
p879
sS'path'
p880
S'lilypad'
p881
sS'unlock_bits'
p882
S'0x3F'
p883
ssS'build'
p884
(dp885
S'core'
p886
S'arduino'
p887
sS'mcu'
p888
S'atmega168'
p889
sS'f_cpu'
p890
S'8000000L'
p891
sS'variant'
p892
S'standard'
p893
ssS'name'
p894
S'LilyPad Arduino w/ ATmega168'
p895
sS'upload'
p896
(dp897
S'speed'
p898
S'19200'
p899
sS'maximum_size'
p900
S'14336'
p901
sS'protocol'
p902
S'arduino'
p903
ssaa(lp904
S'pro5v328'
p905
a(dp906
S'bootloader'
p907
(dp908
S'extended_fuses'
p909
S'0x05'
p910
sS'high_fuses'
p911
S'0xDA'
p912
sS'low_fuses'
p913
S'0xFF'
p914
sS'lock_bits'
p915
S'0x0F'
p916
sS'file'
p917
S'ATmegaBOOT_168_atmega328.hex'
p918
sS'path'
p919
S'atmega'
p920
sS'unlock_bits'
p921
S'0x3F'
p922
ssS'build'
p923
(dp924
S'core'
p925
S'arduino'
p926
sS'mcu'
p927
S'atmega328p'
p928
sS'f_cpu'
p929
S'16000000L'
p930
sS'variant'
p931
S'standard'
p932
ssS'name'
p933
S'Arduino Pro or Pro Mini (5V, 16 MHz) w/ ATmega328'
p934
sS'upload'
p935
(dp936
S'speed'
p937
S'57600'
p938
sS'maximum_size'
p939
S'30720'
p940
sS'protocol'
p941
S'arduino'
p942
ssaa(lp943
S'pro5v'
p944
a(dp945
S'bootloader'
p946
(dp947
S'extended_fuses'
p948
S'0x00'
p949
sS'high_fuses'
p950
S'0xdd'
p951
sS'low_fuses'
p952
S'0xff'
p953
sS'lock_bits'
p954
S'0x0F'
p955
sS'file'
p956
S'ATmegaBOOT_168_diecimila.hex'
p957
sS'path'
p958
S'atmega'
p959
sS'unlock_bits'
p960
S'0x3F'
p961
ssS'build'
p962
(dp963
S'core'
p964
S'arduino'
p965
sS'mcu'
p966
S'atmega168'
p967
sS'f_cpu'
p968
S'16000000L'
p969
sS'variant'
p970
S'standard'
p971
ssS'name'
p972
S'Arduino Pro or Pro Mini (5V, 16 MHz) w/ ATmega168'
p973
sS'upload'
p974
(dp975
S'speed'
p976
S'19200'
p977
sS'maximum_size'
p978
S'14336'
p979
sS'protocol'
p980
S'arduino'
p981
ssaa(lp982
S'pro328'
p983
a(dp984
S'bootloader'
p985
(dp986
S'extended_fuses'
p987
S'0x05'
p988
sS'high_fuses'
p989
S'0xDA'
p990
sS'low_fuses'
p991
S'0xFF'
p992
sS'lock_bits'
p993
S'0x0F'
p994
sS'file'
p995
S'ATmegaBOOT_168_atmega328_pro_8MHz.hex'
p996
sS'path'
p997
S'atmega'
p998
sS'unlock_bits'
p999
S'0x3F'
p1000
ssS'build'
p1001
(dp1002
S'core'
p1003
S'arduino'
p1004
sS'mcu'
p1005
S'atmega328p'
p1006
sS'f_cpu'
p1007
S'8000000L'
p1008
sS'variant'
p1009
S'standard'
p1010
ssS'name'
p1011
S'Arduino Pro or Pro Mini (3.3V, 8 MHz) w/ ATmega328'
p1012
sS'upload'
p1013
(dp1014
S'speed'
p1015
S'57600'
p1016
sS'maximum_size'
p1017
S'30720'
p1018
sS'protocol'
p1019
S'arduino'
p1020
ssaa(lp1021
S'pro'
p1022
a(dp1023
S'bootloader'
p1024
(dp1025
S'extended_fuses'
p1026
S'0x00'
p1027
sS'high_fuses'
p1028
S'0xdd'
p1029
sS'low_fuses'
p1030
S'0xc6'
p1031
sS'lock_bits'
p1032
S'0x0F'
p1033
sS'file'
p1034
S'ATmegaBOOT_168_pro_8MHz.hex'
p1035
sS'path'
p1036
S'atmega'
p1037
sS'unlock_bits'
p1038
S'0x3F'
p1039
ssS'build'
p1040
(dp1041
S'core'
p1042
S'arduino'
p1043
sS'mcu'
p1044
S'atmega168'
p1045
sS'f_cpu'
p1046
S'8000000L'
p1047
sS'variant'
p1048
S'standard'
p1049
ssS'name'
p1050
S'Arduino Pro or Pro Mini (3.3V, 8 MHz) w/ ATmega168'
p1051
sS'upload'
p1052
(dp1053
S'speed'
p1054
S'19200'
p1055
sS'maximum_size'
p1056
S'14336'
p1057
sS'protocol'
p1058
S'arduino'
p1059
ssaa(lp1060
S'atmega168'
p1061
a(dp1062
S'bootloader'
p1063
(dp1064
S'extended_fuses'
p1065
S'0x00'
p1066
sS'high_fuses'
p1067
S'0xdd'
p1068
sS'low_fuses'
p1069
S'0xff'
p1070
sS'lock_bits'
p1071
S'0x0F'
p1072
sS'file'
p1073
S'ATmegaBOOT_168_ng.hex'
p1074
sS'path'
p1075
S'atmega'
p1076
sS'unlock_bits'
p1077
S'0x3F'
p1078
ssS'build'
p1079
(dp1080
S'core'
p1081
S'arduino'
p1082
sS'mcu'
p1083
S'atmega168'
p1084
sS'f_cpu'
p1085
S'16000000L'
p1086
sS'variant'
p1087
S'standard'
p1088
ssS'name'
p1089
S'Arduino NG or older w/ ATmega168'
p1090
sS'upload'
p1091
(dp1092
S'speed'
p1093
S'19200'
p1094
sS'maximum_size'
p1095
S'14336'
p1096
sS'protocol'
p1097
S'arduino'
p1098
ssaa(lp1099
S'atmega8'
p1100
a(dp1101
S'bootloader'
p1102
(dp1103
S'high_fuses'
p1104
S'0xca'
p1105
sS'low_fuses'
p1106
S'0xdf'
p1107
sS'lock_bits'
p1108
S'0x0F'
p1109
sS'file'
p1110
S'ATmegaBOOT-prod-firmware-2009-11-07.hex'
p1111
sS'path'
p1112
S'atmega8'
p1113
sS'unlock_bits'
p1114
S'0x3F'
p1115
ssS'build'
p1116
(dp1117
S'core'
p1118
S'arduino'
p1119
sS'mcu'
p1120
S'atmega8'
p1121
sS'f_cpu'
p1122
S'16000000L'
p1123
sS'variant'
p1124
S'standard'
p1125
ssS'name'
p1126
S'Arduino NG or older w/ ATmega8'
p1127
sS'upload'
p1128
(dp1129
S'speed'
p1130
S'19200'
p1131
sS'maximum_size'
p1132
S'7168'
p1133
sS'protocol'
p1134
S'arduino'
p1135
ssaa(lp1136
S'robotControl'
p1137
a(dp1138
S'bootloader'
p1139
(dp1140
S'extended_fuses'
p1141
S'0xcb'
p1142
sS'high_fuses'
p1143
S'0xd8'
p1144
sS'low_fuses'
p1145
S'0xff'
p1146
sS'lock_bits'
p1147
S'0x2F'
p1148
sS'file'
p1149
S'Caterina-Robot-Control.hex'
p1150
sS'path'
p1151
S'caterina-Arduino_Robot'
p1152
sS'unlock_bits'
p1153
S'0x3F'
p1154
ssS'build'
p1155
(dp1156
S'core'
p1157
S'robot'
p1158
sS'f_cpu'
p1159
S'16000000L'
p1160
sS'vid'
p1161
S'0x2341'
p1162
sS'pid'
p1163
S'0x8038'
p1164
sS'variant'
p1165
S'robot_control'
p1166
sS'mcu'
p1167
S'atmega32u4'
p1168
ssS'name'
p1169
S'Arduino Robot Control'
p1170
sS'upload'
p1171
(dp1172
S'speed'
p1173
S'57600'
p1174
sS'maximum_size'
p1175
S'28672'
p1176
sS'protocol'
p1177
S'avr109'
p1178
sS'disable_flushing'
p1179
S'true'
p1180
ssaa(lp1181
S'robotMotor'
p1182
a(dp1183
S'bootloader'
p1184
(dp1185
S'extended_fuses'
p1186
S'0xcb'
p1187
sS'high_fuses'
p1188
S'0xd8'
p1189
sS'low_fuses'
p1190
S'0xff'
p1191
sS'lock_bits'
p1192
S'0x2F'
p1193
sS'file'
p1194
S'Caterina-Robot-Motor.hex'
p1195
sS'path'
p1196
S'caterina-Arduino_Robot'
p1197
sS'unlock_bits'
p1198
S'0x3F'
p1199
ssS'build'
p1200
(dp1201
S'core'
p1202
S'robot'
p1203
sS'f_cpu'
p1204
S'16000000L'
p1205
sS'vid'
p1206
S'0x2341'
p1207
sS'pid'
p1208
S'0x8039'
p1209
sS'variant'
p1210
S'robot_motor'
p1211
sS'mcu'
p1212
S'atmega32u4'
p1213
ssS'name'
p1214
S'Arduino Robot Motor'
p1215
sS'upload'
p1216
(dp1217
S'speed'
p1218
S'57600'
p1219
sS'maximum_size'
p1220
S'28672'
p1221
sS'protocol'
p1222
S'avr109'
p1223
sS'disable_flushing'
p1224
S'true'
p1225
ssaatp1226
Rp1227
(dp1228
S'default'
p1229
S'uno'
p1230
sbtp1231
a(S'used_libs'
p1232
(lp1233
S'/usr/share/arduino/hardware/arduino/cores/arduino'
p1234
aS'lib/ros_lib'
p1235
atp1236
a(S'make'
p1237
S'/usr/share/arduino/hardware/tools/avr/bin/make'
p1238
tp1239
a(S'build_dir'
p1240
S'.build/uno'
p1241
tp1242
a(S'cc'
p1243
S'/usr/share/arduino/hardware/tools/avr/bin/avr-gcc'
p1244
tp1245
a(S'cflags'
p1246
g2
(g3
g4
(lp1247
tp1248
Rp1249
tp1250
a(S'cxxflags'
p1251
g2
(g3
g4
(lp1252
S'-fno-exceptions'
p1253
atp1254
Rp1255
tp1256
a(S'arduino_variants_dir'
p1257
S'/usr/share/arduino/hardware/arduino/variants'
p1258
tp1259
a(S'stty'
p1260
S'/bin/stty'
p1261
tp1262
a(S'version.txt'
p1263
S'/usr/share/arduino/lib/version.txt'
p1264
tp1265
a(S'arduino_core_dir'
p1266
g1234
tp1267
a(S'boards.txt'
p1268
S'/usr/share/arduino/hardware/arduino/boards.txt'
p1269
tp1270
a(S'avrdude.conf'
p1271
S'/usr/share/arduino/hardware/tools/avrdude.conf'
p1272
tp1273
a(S'deps'
p1274
g2
(g3
g4
(lp1275
S'.build/uno/src/dependencies.d'
p1276
aS'.build/uno/arduino/dependencies.d'
p1277
aS'.build/uno/ros_lib/dependencies.d'
p1278
atp1279
Rp1280
tp1281
a.