(lp0
(S'cppflags'
p1
ccopy_reg
_reconstructor
p2
(cino.utils
SpaceList
p3
c__builtin__
list
p4
(lp5
S'-mmcu=atmega2560'
p6
aS'-DF_CPU=16000000L'
p7
aS'-DARDUINO=105'
p8
aS'-I/usr/share/arduino/hardware/arduino/cores/arduino'
p9
aS'-ffunction-sections'
p10
aS'-fdata-sections'
p11
aS'-g'
p12
aS'-Os'
p13
aS'-w'
p14
aS'-I/usr/share/arduino/hardware/arduino/variants/mega'
p15
aS'-I/usr/share/arduino/hardware/arduino/cores/arduino'
p16
aS'-I/usr/share/arduino/hardware/arduino/cores/arduino/avr-libc'
p17
aS'-Ilib/ros_lib'
p18
aS'-Ilib/ros_lib/tests'
p19
aS'-Ilib/ros_lib/rospy_tutorials'
p20
aS'-Ilib/ros_lib/actionlib'
p21
aS'-Ilib/ros_lib/turtle_actionlib'
p22
aS'-Ilib/ros_lib/bond'
p23
aS'-Ilib/ros_lib/rosgraph_msgs'
p24
aS'-Ilib/ros_lib/zeroconf_msgs'
p25
aS'-Ilib/ros_lib/gateway_msgs'
p26
aS'-Ilib/ros_lib/capabilities'
p27
aS'-Ilib/ros_lib/rocon_std_msgs'
p28
aS'-Ilib/ros_lib/polled_camera'
p29
aS'-Ilib/ros_lib/actionlib_tutorials'
p30
aS'-Ilib/ros_lib/image_recognition_msgs'
p31
aS'-Ilib/ros_lib/rocon_interaction_msgs'
p32
aS'-Ilib/ros_lib/statistics_msgs'
p33
aS'-Ilib/ros_lib/roscpp_tutorials'
p34
aS'-Ilib/ros_lib/turtlesim'
p35
aS'-Ilib/ros_lib/map_msgs'
p36
aS'-Ilib/ros_lib/theora_image_transport'
p37
aS'-Ilib/ros_lib/stereo_msgs'
p38
aS'-Ilib/ros_lib/rosserial_mbed'
p39
aS'-Ilib/ros_lib/roscpp'
p40
aS'-Ilib/ros_lib/nodelet'
p41
aS'-Ilib/ros_lib/image_exposure_msgs'
p42
aS'-Ilib/ros_lib/multimaster_msgs'
p43
aS'-Ilib/ros_lib/twist_mux_msgs'
p44
aS'-Ilib/ros_lib/kobuki_msgs'
p45
aS'-Ilib/ros_lib/uuid_msgs'
p46
aS'-Ilib/ros_lib/actionlib_msgs'
p47
aS'-Ilib/ros_lib/topic_tools'
p48
aS'-Ilib/ros_lib/calibration_msgs'
p49
aS'-Ilib/ros_lib/move_base_msgs'
p50
aS'-Ilib/ros_lib/opencv_apps'
p51
aS'-Ilib/ros_lib/dynamic_reconfigure'
p52
aS'-Ilib/ros_lib/smach_msgs'
p53
aS'-Ilib/ros_lib/rocon_service_pair_msgs'
p54
aS'-Ilib/ros_lib/realsense2_camera'
p55
aS'-Ilib/ros_lib/tf2_msgs'
p56
aS'-Ilib/ros_lib/robot_localization'
p57
aS'-Ilib/ros_lib/multimaster_msgs_fkie'
p58
aS'-Ilib/ros_lib/shape_msgs'
p59
aS'-Ilib/ros_lib/rosserial_arduino'
p60
aS'-Ilib/ros_lib/visualization_msgs'
p61
aS'-Ilib/ros_lib/nav_msgs'
p62
aS'-Ilib/ros_lib/geometry_msgs'
p63
aS'-Ilib/ros_lib/rocon_app_manager_msgs'
p64
aS'-Ilib/ros_lib/diagnostic_msgs'
p65
aS'-Ilib/ros_lib/trajectory_msgs'
p66
aS'-Ilib/ros_lib/ros'
p67
aS'-Ilib/ros_lib/std_msgs'
p68
aS'-Ilib/ros_lib/sensor_msgs'
p69
aS'-Ilib/ros_lib/controller_manager_msgs'
p70
aS'-Ilib/ros_lib/rosserial_msgs'
p71
aS'-Ilib/ros_lib/geographic_msgs'
p72
aS'-Ilib/ros_lib/tf'
p73
aS'-Ilib/ros_lib/gazebo_msgs'
p74
aS'-Ilib/ros_lib/image_cb_detector'
p75
aS'-Ilib/ros_lib/std_srvs'
p76
aS'-Ilib/ros_lib/tests/array_test'
p77
aS'-Ilib/ros_lib/tests/time_test'
p78
aS'-Ilib/ros_lib/tests/float64_test'
p79
atp80
Rp81
tp82
a(S'cc'
p83
S'/usr/share/arduino/hardware/tools/avr/bin/avr-gcc'
p84
tp85
a(S'build_dir'
p86
S'.build/mega2560'
p87
tp88
a(S'avrdude'
p89
S'/usr/share/arduino/hardware/tools/avrdude'
p90
tp91
a(S'ar'
p92
S'/usr/share/arduino/hardware/tools/avr/bin/avr-ar'
p93
tp94
a(S'names'
p95
(dp96
S'cpp'
p97
S'%s.cpp'
p98
sS'obj'
p99
S'%s.o'
p100
sS'lib'
p101
S'lib%s.a'
p102
sS'deps'
p103
S'%s.d'
p104
stp105
a(S'ldflags'
p106
g2
(g3
g4
(lp107
g6
aS'-Wl,-Os'
p108
aS'-Wl,--gc-sections'
p109
atp110
Rp111
tp112
a(S'arduino_lib_version'
p113
g2
(cino.environment
Version
p114
c__builtin__
tuple
p115
(I1
I0
I5
tp116
tp117
Rp118
tp119
a(S'objcopy'
p120
S'/usr/share/arduino/hardware/tools/avr/bin/avr-objcopy'
p121
tp122
a(S'board_models'
p123
cino.environment
BoardModels
p124
((lp125
(lp126
S'uno'
p127
a(dp128
S'build'
p129
(dp130
S'core'
p131
S'arduino'
p132
sS'mcu'
p133
S'atmega328p'
p134
sS'f_cpu'
p135
S'16000000L'
p136
sS'variant'
p137
S'standard'
p138
ssS'bootloader'
p139
(dp140
S'extended_fuses'
p141
S'0x05'
p142
sS'high_fuses'
p143
S'0xde'
p144
sS'low_fuses'
p145
S'0xff'
p146
sS'lock_bits'
p147
S'0x0F'
p148
sS'file'
p149
S'optiboot_atmega328.hex'
p150
sS'path'
p151
S'optiboot'
p152
sS'unlock_bits'
p153
S'0x3F'
p154
ssS'upload'
p155
(dp156
S'protocol'
p157
S'arduino'
p158
sS'maximum_size'
p159
S'32256'
p160
sS'speed'
p161
S'115200'
p162
ssS'name'
p163
S'Arduino Uno'
p164
saa(lp165
S'atmega328'
p166
a(dp167
S'build'
p168
(dp169
S'core'
p170
S'arduino'
p171
sS'mcu'
p172
S'atmega328p'
p173
sS'f_cpu'
p174
S'16000000L'
p175
sS'variant'
p176
S'standard'
p177
ssS'bootloader'
p178
(dp179
S'extended_fuses'
p180
S'0x05'
p181
sS'high_fuses'
p182
S'0xDA'
p183
sS'low_fuses'
p184
S'0xFF'
p185
sS'lock_bits'
p186
S'0x0F'
p187
sS'file'
p188
S'ATmegaBOOT_168_atmega328.hex'
p189
sS'path'
p190
S'atmega'
p191
sS'unlock_bits'
p192
S'0x3F'
p193
ssS'upload'
p194
(dp195
S'protocol'
p196
S'arduino'
p197
sS'maximum_size'
p198
S'30720'
p199
sS'speed'
p200
S'57600'
p201
ssS'name'
p202
S'Arduino Duemilanove w/ ATmega328'
p203
saa(lp204
S'diecimila'
p205
a(dp206
S'build'
p207
(dp208
S'core'
p209
S'arduino'
p210
sS'mcu'
p211
S'atmega168'
p212
sS'f_cpu'
p213
S'16000000L'
p214
sS'variant'
p215
S'standard'
p216
ssS'bootloader'
p217
(dp218
S'extended_fuses'
p219
S'0x00'
p220
sS'high_fuses'
p221
S'0xdd'
p222
sS'low_fuses'
p223
S'0xff'
p224
sS'lock_bits'
p225
S'0x0F'
p226
sS'file'
p227
S'ATmegaBOOT_168_diecimila.hex'
p228
sS'path'
p229
S'atmega'
p230
sS'unlock_bits'
p231
S'0x3F'
p232
ssS'upload'
p233
(dp234
S'protocol'
p235
S'arduino'
p236
sS'maximum_size'
p237
S'14336'
p238
sS'speed'
p239
S'19200'
p240
ssS'name'
p241
S'Arduino Diecimila or Duemilanove w/ ATmega168'
p242
saa(lp243
S'nano328'
p244
a(dp245
S'build'
p246
(dp247
S'core'
p248
S'arduino'
p249
sS'mcu'
p250
S'atmega328p'
p251
sS'f_cpu'
p252
S'16000000L'
p253
sS'variant'
p254
S'eightanaloginputs'
p255
ssS'bootloader'
p256
(dp257
S'extended_fuses'
p258
S'0x05'
p259
sS'high_fuses'
p260
S'0xDA'
p261
sS'low_fuses'
p262
S'0xFF'
p263
sS'lock_bits'
p264
S'0x0F'
p265
sS'file'
p266
S'ATmegaBOOT_168_atmega328.hex'
p267
sS'path'
p268
S'atmega'
p269
sS'unlock_bits'
p270
S'0x3F'
p271
ssS'upload'
p272
(dp273
S'protocol'
p274
S'arduino'
p275
sS'maximum_size'
p276
S'30720'
p277
sS'speed'
p278
S'57600'
p279
ssS'name'
p280
S'Arduino Nano w/ ATmega328'
p281
saa(lp282
S'nano'
p283
a(dp284
S'build'
p285
(dp286
S'core'
p287
S'arduino'
p288
sS'mcu'
p289
S'atmega168'
p290
sS'f_cpu'
p291
S'16000000L'
p292
sS'variant'
p293
S'eightanaloginputs'
p294
ssS'bootloader'
p295
(dp296
S'extended_fuses'
p297
S'0x00'
p298
sS'high_fuses'
p299
S'0xdd'
p300
sS'low_fuses'
p301
S'0xff'
p302
sS'lock_bits'
p303
S'0x0F'
p304
sS'file'
p305
S'ATmegaBOOT_168_diecimila.hex'
p306
sS'path'
p307
S'atmega'
p308
sS'unlock_bits'
p309
S'0x3F'
p310
ssS'upload'
p311
(dp312
S'protocol'
p313
S'arduino'
p314
sS'maximum_size'
p315
S'14336'
p316
sS'speed'
p317
S'19200'
p318
ssS'name'
p319
S'Arduino Nano w/ ATmega168'
p320
saa(lp321
S'mega2560'
p322
a(dp323
S'build'
p324
(dp325
S'core'
p326
S'arduino'
p327
sS'mcu'
p328
S'atmega2560'
p329
sS'f_cpu'
p330
S'16000000L'
p331
sS'variant'
p332
S'mega'
p333
ssS'bootloader'
p334
(dp335
S'extended_fuses'
p336
S'0xFD'
p337
sS'high_fuses'
p338
S'0xD8'
p339
sS'low_fuses'
p340
S'0xFF'
p341
sS'lock_bits'
p342
S'0x0F'
p343
sS'file'
p344
S'stk500boot_v2_mega2560.hex'
p345
sS'path'
p346
S'stk500v2'
p347
sS'unlock_bits'
p348
S'0x3F'
p349
ssS'upload'
p350
(dp351
S'protocol'
p352
S'wiring'
p353
sS'maximum_size'
p354
S'258048'
p355
sS'speed'
p356
S'115200'
p357
ssS'name'
p358
S'Arduino Mega 2560 or Mega ADK'
p359
saa(lp360
S'mega'
p361
a(dp362
S'build'
p363
(dp364
S'core'
p365
S'arduino'
p366
sS'mcu'
p367
S'atmega1280'
p368
sS'f_cpu'
p369
S'16000000L'
p370
sS'variant'
p371
S'mega'
p372
ssS'bootloader'
p373
(dp374
S'extended_fuses'
p375
S'0xF5'
p376
sS'high_fuses'
p377
S'0xDA'
p378
sS'low_fuses'
p379
S'0xFF'
p380
sS'lock_bits'
p381
S'0x0F'
p382
sS'file'
p383
S'ATmegaBOOT_168_atmega1280.hex'
p384
sS'path'
p385
S'atmega'
p386
sS'unlock_bits'
p387
S'0x3F'
p388
ssS'upload'
p389
(dp390
S'protocol'
p391
S'arduino'
p392
sS'maximum_size'
p393
S'126976'
p394
sS'speed'
p395
S'57600'
p396
ssS'name'
p397
S'Arduino Mega (ATmega1280)'
p398
saa(lp399
S'leonardo'
p400
a(dp401
S'build'
p402
(dp403
S'core'
p404
S'arduino'
p405
sS'f_cpu'
p406
S'16000000L'
p407
sS'vid'
p408
S'0x2341'
p409
sS'pid'
p410
S'0x8036'
p411
sS'variant'
p412
S'leonardo'
p413
sS'mcu'
p414
S'atmega32u4'
p415
ssS'bootloader'
p416
(dp417
S'extended_fuses'
p418
S'0xcb'
p419
sS'high_fuses'
p420
S'0xd8'
p421
sS'low_fuses'
p422
S'0xff'
p423
sS'lock_bits'
p424
S'0x2F'
p425
sS'file'
p426
S'Caterina-Leonardo.hex'
p427
sS'path'
p428
S'caterina'
p429
sS'unlock_bits'
p430
S'0x3F'
p431
ssS'upload'
p432
(dp433
S'protocol'
p434
S'avr109'
p435
sS'maximum_size'
p436
S'28672'
p437
sS'speed'
p438
S'57600'
p439
sS'disable_flushing'
p440
S'true'
p441
ssS'name'
p442
S'Arduino Leonardo'
p443
saa(lp444
S'esplora'
p445
a(dp446
S'build'
p447
(dp448
S'core'
p449
S'arduino'
p450
sS'f_cpu'
p451
S'16000000L'
p452
sS'vid'
p453
S'0x2341'
p454
sS'pid'
p455
S'0x803C'
p456
sS'variant'
p457
S'leonardo'
p458
sS'mcu'
p459
S'atmega32u4'
p460
ssS'bootloader'
p461
(dp462
S'extended_fuses'
p463
S'0xcb'
p464
sS'high_fuses'
p465
S'0xd8'
p466
sS'low_fuses'
p467
S'0xff'
p468
sS'lock_bits'
p469
S'0x2F'
p470
sS'file'
p471
S'Caterina-Esplora.hex'
p472
sS'path'
p473
S'caterina'
p474
sS'unlock_bits'
p475
S'0x3F'
p476
ssS'upload'
p477
(dp478
S'protocol'
p479
S'avr109'
p480
sS'maximum_size'
p481
S'28672'
p482
sS'speed'
p483
S'57600'
p484
sS'disable_flushing'
p485
S'true'
p486
ssS'name'
p487
S'Arduino Esplora'
p488
saa(lp489
S'micro'
p490
a(dp491
S'build'
p492
(dp493
S'core'
p494
S'arduino'
p495
sS'f_cpu'
p496
S'16000000L'
p497
sS'vid'
p498
S'0x2341'
p499
sS'pid'
p500
S'0x8037'
p501
sS'variant'
p502
S'micro'
p503
sS'mcu'
p504
S'atmega32u4'
p505
ssS'bootloader'
p506
(dp507
S'extended_fuses'
p508
S'0xcb'
p509
sS'high_fuses'
p510
S'0xd8'
p511
sS'low_fuses'
p512
S'0xff'
p513
sS'lock_bits'
p514
S'0x2F'
p515
sS'file'
p516
S'Caterina-Micro.hex'
p517
sS'path'
p518
S'caterina'
p519
sS'unlock_bits'
p520
S'0x3F'
p521
ssS'upload'
p522
(dp523
S'protocol'
p524
S'avr109'
p525
sS'maximum_size'
p526
S'28672'
p527
sS'speed'
p528
S'57600'
p529
sS'disable_flushing'
p530
S'true'
p531
ssS'name'
p532
S'Arduino Micro'
p533
saa(lp534
S'mini328'
p535
a(dp536
S'build'
p537
(dp538
S'core'
p539
S'arduino'
p540
sS'mcu'
p541
S'atmega328p'
p542
sS'f_cpu'
p543
S'16000000L'
p544
sS'variant'
p545
S'eightanaloginputs'
p546
ssS'bootloader'
p547
(dp548
S'extended_fuses'
p549
S'0x05'
p550
sS'high_fuses'
p551
S'0xd8'
p552
sS'low_fuses'
p553
S'0xff'
p554
sS'lock_bits'
p555
S'0x0F'
p556
sS'file'
p557
S'optiboot_atmega328-Mini.hex'
p558
sS'path'
p559
S'optiboot'
p560
sS'unlock_bits'
p561
S'0x3F'
p562
ssS'upload'
p563
(dp564
S'protocol'
p565
S'arduino'
p566
sS'maximum_size'
p567
S'28672'
p568
sS'speed'
p569
S'115200'
p570
ssS'name'
p571
S'Arduino Mini w/ ATmega328'
p572
saa(lp573
S'mini'
p574
a(dp575
S'build'
p576
(dp577
S'core'
p578
S'arduino'
p579
sS'mcu'
p580
S'atmega168'
p581
sS'f_cpu'
p582
S'16000000L'
p583
sS'variant'
p584
S'eightanaloginputs'
p585
ssS'bootloader'
p586
(dp587
S'extended_fuses'
p588
S'0x00'
p589
sS'high_fuses'
p590
S'0xdd'
p591
sS'low_fuses'
p592
S'0xff'
p593
sS'lock_bits'
p594
S'0x0F'
p595
sS'file'
p596
S'ATmegaBOOT_168_ng.hex'
p597
sS'path'
p598
S'atmega'
p599
sS'unlock_bits'
p600
S'0x3F'
p601
ssS'upload'
p602
(dp603
S'protocol'
p604
S'arduino'
p605
sS'maximum_size'
p606
S'14336'
p607
sS'speed'
p608
S'19200'
p609
ssS'name'
p610
S'Arduino Mini w/ ATmega168'
p611
saa(lp612
S'ethernet'
p613
a(dp614
S'build'
p615
(dp616
S'variant'
p617
S'standard'
p618
sS'mcu'
p619
S'atmega328p'
p620
sS'f_cpu'
p621
S'16000000L'
p622
sS'core'
p623
S'arduino'
p624
ssS'bootloader'
p625
(dp626
S'extended_fuses'
p627
S'0x05'
p628
sS'high_fuses'
p629
S'0xde'
p630
sS'low_fuses'
p631
S'0xff'
p632
sS'lock_bits'
p633
S'0x0F'
p634
sS'file'
p635
S'optiboot_atmega328.hex'
p636
sS'path'
p637
S'optiboot'
p638
sS'unlock_bits'
p639
S'0x3F'
p640
ssS'upload'
p641
(dp642
S'protocol'
p643
S'arduino'
p644
sS'maximum_size'
p645
S'32256'
p646
sS'speed'
p647
S'115200'
p648
ssS'name'
p649
S'Arduino Ethernet'
p650
saa(lp651
S'fio'
p652
a(dp653
S'build'
p654
(dp655
S'core'
p656
S'arduino'
p657
sS'mcu'
p658
S'atmega328p'
p659
sS'f_cpu'
p660
S'8000000L'
p661
sS'variant'
p662
S'eightanaloginputs'
p663
ssS'bootloader'
p664
(dp665
S'extended_fuses'
p666
S'0x05'
p667
sS'high_fuses'
p668
S'0xDA'
p669
sS'low_fuses'
p670
S'0xFF'
p671
sS'lock_bits'
p672
S'0x0F'
p673
sS'file'
p674
S'ATmegaBOOT_168_atmega328_pro_8MHz.hex'
p675
sS'path'
p676
S'arduino:atmega'
p677
sS'unlock_bits'
p678
S'0x3F'
p679
ssS'upload'
p680
(dp681
S'protocol'
p682
S'arduino'
p683
sS'maximum_size'
p684
S'30720'
p685
sS'speed'
p686
S'57600'
p687
ssS'name'
p688
S'Arduino Fio'
p689
saa(lp690
S'bt328'
p691
a(dp692
S'build'
p693
(dp694
S'core'
p695
S'arduino'
p696
sS'mcu'
p697
S'atmega328p'
p698
sS'f_cpu'
p699
S'16000000L'
p700
sS'variant'
p701
S'eightanaloginputs'
p702
ssS'bootloader'
p703
(dp704
S'extended_fuses'
p705
S'0x05'
p706
sS'high_fuses'
p707
S'0xd8'
p708
sS'low_fuses'
p709
S'0xff'
p710
sS'lock_bits'
p711
S'0x0F'
p712
sS'file'
p713
S'ATmegaBOOT_168_atmega328_bt.hex'
p714
sS'path'
p715
S'bt'
p716
sS'unlock_bits'
p717
S'0x3F'
p718
ssS'upload'
p719
(dp720
S'protocol'
p721
S'arduino'
p722
sS'maximum_size'
p723
S'28672'
p724
sS'speed'
p725
S'19200'
p726
sS'disable_flushing'
p727
S'true'
p728
ssS'name'
p729
S'Arduino BT w/ ATmega328'
p730
saa(lp731
S'bt'
p732
a(dp733
S'build'
p734
(dp735
S'core'
p736
S'arduino'
p737
sS'mcu'
p738
S'atmega168'
p739
sS'f_cpu'
p740
S'16000000L'
p741
sS'variant'
p742
S'eightanaloginputs'
p743
ssS'bootloader'
p744
(dp745
S'extended_fuses'
p746
S'0x00'
p747
sS'high_fuses'
p748
S'0xdd'
p749
sS'low_fuses'
p750
S'0xff'
p751
sS'lock_bits'
p752
S'0x0F'
p753
sS'file'
p754
S'ATmegaBOOT_168.hex'
p755
sS'path'
p756
S'bt'
p757
sS'unlock_bits'
p758
S'0x3F'
p759
ssS'upload'
p760
(dp761
S'protocol'
p762
S'arduino'
p763
sS'maximum_size'
p764
S'14336'
p765
sS'speed'
p766
S'19200'
p767
sS'disable_flushing'
p768
S'true'
p769
ssS'name'
p770
S'Arduino BT w/ ATmega168'
p771
saa(lp772
S'LilyPadUSB'
p773
a(dp774
S'build'
p775
(dp776
S'core'
p777
S'arduino'
p778
sS'f_cpu'
p779
S'8000000L'
p780
sS'vid'
p781
S'0x1B4F'
p782
sS'pid'
p783
S'0x9208'
p784
sS'variant'
p785
S'leonardo'
p786
sS'mcu'
p787
S'atmega32u4'
p788
ssS'bootloader'
p789
(dp790
S'extended_fuses'
p791
S'0xce'
p792
sS'high_fuses'
p793
S'0xd8'
p794
sS'low_fuses'
p795
S'0xff'
p796
sS'lock_bits'
p797
S'0x2F'
p798
sS'file'
p799
S'Caterina-LilyPadUSB.hex'
p800
sS'path'
p801
S'caterina-LilyPadUSB'
p802
sS'unlock_bits'
p803
S'0x3F'
p804
ssS'upload'
p805
(dp806
S'protocol'
p807
S'avr109'
p808
sS'maximum_size'
p809
S'28672'
p810
sS'speed'
p811
S'57600'
p812
sS'disable_flushing'
p813
S'true'
p814
ssS'name'
p815
S'LilyPad Arduino USB'
p816
saa(lp817
S'lilypad328'
p818
a(dp819
S'build'
p820
(dp821
S'core'
p822
S'arduino'
p823
sS'mcu'
p824
S'atmega328p'
p825
sS'f_cpu'
p826
S'8000000L'
p827
sS'variant'
p828
S'standard'
p829
ssS'bootloader'
p830
(dp831
S'extended_fuses'
p832
S'0x05'
p833
sS'high_fuses'
p834
S'0xDA'
p835
sS'low_fuses'
p836
S'0xFF'
p837
sS'lock_bits'
p838
S'0x0F'
p839
sS'file'
p840
S'ATmegaBOOT_168_atmega328_pro_8MHz.hex'
p841
sS'path'
p842
S'atmega'
p843
sS'unlock_bits'
p844
S'0x3F'
p845
ssS'upload'
p846
(dp847
S'protocol'
p848
S'arduino'
p849
sS'maximum_size'
p850
S'30720'
p851
sS'speed'
p852
S'57600'
p853
ssS'name'
p854
S'LilyPad Arduino w/ ATmega328'
p855
saa(lp856
S'lilypad'
p857
a(dp858
S'build'
p859
(dp860
S'core'
p861
S'arduino'
p862
sS'mcu'
p863
S'atmega168'
p864
sS'f_cpu'
p865
S'8000000L'
p866
sS'variant'
p867
S'standard'
p868
ssS'bootloader'
p869
(dp870
S'extended_fuses'
p871
S'0x00'
p872
sS'high_fuses'
p873
S'0xdd'
p874
sS'low_fuses'
p875
S'0xe2'
p876
sS'lock_bits'
p877
S'0x0F'
p878
sS'file'
p879
S'LilyPadBOOT_168.hex'
p880
sS'path'
p881
S'lilypad'
p882
sS'unlock_bits'
p883
S'0x3F'
p884
ssS'upload'
p885
(dp886
S'protocol'
p887
S'arduino'
p888
sS'maximum_size'
p889
S'14336'
p890
sS'speed'
p891
S'19200'
p892
ssS'name'
p893
S'LilyPad Arduino w/ ATmega168'
p894
saa(lp895
S'pro5v328'
p896
a(dp897
S'build'
p898
(dp899
S'core'
p900
S'arduino'
p901
sS'mcu'
p902
S'atmega328p'
p903
sS'f_cpu'
p904
S'16000000L'
p905
sS'variant'
p906
S'standard'
p907
ssS'bootloader'
p908
(dp909
S'extended_fuses'
p910
S'0x05'
p911
sS'high_fuses'
p912
S'0xDA'
p913
sS'low_fuses'
p914
S'0xFF'
p915
sS'lock_bits'
p916
S'0x0F'
p917
sS'file'
p918
S'ATmegaBOOT_168_atmega328.hex'
p919
sS'path'
p920
S'atmega'
p921
sS'unlock_bits'
p922
S'0x3F'
p923
ssS'upload'
p924
(dp925
S'protocol'
p926
S'arduino'
p927
sS'maximum_size'
p928
S'30720'
p929
sS'speed'
p930
S'57600'
p931
ssS'name'
p932
S'Arduino Pro or Pro Mini (5V, 16 MHz) w/ ATmega328'
p933
saa(lp934
S'pro5v'
p935
a(dp936
S'build'
p937
(dp938
S'core'
p939
S'arduino'
p940
sS'mcu'
p941
S'atmega168'
p942
sS'f_cpu'
p943
S'16000000L'
p944
sS'variant'
p945
S'standard'
p946
ssS'bootloader'
p947
(dp948
S'extended_fuses'
p949
S'0x00'
p950
sS'high_fuses'
p951
S'0xdd'
p952
sS'low_fuses'
p953
S'0xff'
p954
sS'lock_bits'
p955
S'0x0F'
p956
sS'file'
p957
S'ATmegaBOOT_168_diecimila.hex'
p958
sS'path'
p959
S'atmega'
p960
sS'unlock_bits'
p961
S'0x3F'
p962
ssS'upload'
p963
(dp964
S'protocol'
p965
S'arduino'
p966
sS'maximum_size'
p967
S'14336'
p968
sS'speed'
p969
S'19200'
p970
ssS'name'
p971
S'Arduino Pro or Pro Mini (5V, 16 MHz) w/ ATmega168'
p972
saa(lp973
S'pro328'
p974
a(dp975
S'build'
p976
(dp977
S'core'
p978
S'arduino'
p979
sS'mcu'
p980
S'atmega328p'
p981
sS'f_cpu'
p982
S'8000000L'
p983
sS'variant'
p984
S'standard'
p985
ssS'bootloader'
p986
(dp987
S'extended_fuses'
p988
S'0x05'
p989
sS'high_fuses'
p990
S'0xDA'
p991
sS'low_fuses'
p992
S'0xFF'
p993
sS'lock_bits'
p994
S'0x0F'
p995
sS'file'
p996
S'ATmegaBOOT_168_atmega328_pro_8MHz.hex'
p997
sS'path'
p998
S'atmega'
p999
sS'unlock_bits'
p1000
S'0x3F'
p1001
ssS'upload'
p1002
(dp1003
S'protocol'
p1004
S'arduino'
p1005
sS'maximum_size'
p1006
S'30720'
p1007
sS'speed'
p1008
S'57600'
p1009
ssS'name'
p1010
S'Arduino Pro or Pro Mini (3.3V, 8 MHz) w/ ATmega328'
p1011
saa(lp1012
S'pro'
p1013
a(dp1014
S'build'
p1015
(dp1016
S'core'
p1017
S'arduino'
p1018
sS'mcu'
p1019
S'atmega168'
p1020
sS'f_cpu'
p1021
S'8000000L'
p1022
sS'variant'
p1023
S'standard'
p1024
ssS'bootloader'
p1025
(dp1026
S'extended_fuses'
p1027
S'0x00'
p1028
sS'high_fuses'
p1029
S'0xdd'
p1030
sS'low_fuses'
p1031
S'0xc6'
p1032
sS'lock_bits'
p1033
S'0x0F'
p1034
sS'file'
p1035
S'ATmegaBOOT_168_pro_8MHz.hex'
p1036
sS'path'
p1037
S'atmega'
p1038
sS'unlock_bits'
p1039
S'0x3F'
p1040
ssS'upload'
p1041
(dp1042
S'protocol'
p1043
S'arduino'
p1044
sS'maximum_size'
p1045
S'14336'
p1046
sS'speed'
p1047
S'19200'
p1048
ssS'name'
p1049
S'Arduino Pro or Pro Mini (3.3V, 8 MHz) w/ ATmega168'
p1050
saa(lp1051
S'atmega168'
p1052
a(dp1053
S'build'
p1054
(dp1055
S'core'
p1056
S'arduino'
p1057
sS'mcu'
p1058
S'atmega168'
p1059
sS'f_cpu'
p1060
S'16000000L'
p1061
sS'variant'
p1062
S'standard'
p1063
ssS'bootloader'
p1064
(dp1065
S'extended_fuses'
p1066
S'0x00'
p1067
sS'high_fuses'
p1068
S'0xdd'
p1069
sS'low_fuses'
p1070
S'0xff'
p1071
sS'lock_bits'
p1072
S'0x0F'
p1073
sS'file'
p1074
S'ATmegaBOOT_168_ng.hex'
p1075
sS'path'
p1076
S'atmega'
p1077
sS'unlock_bits'
p1078
S'0x3F'
p1079
ssS'upload'
p1080
(dp1081
S'protocol'
p1082
S'arduino'
p1083
sS'maximum_size'
p1084
S'14336'
p1085
sS'speed'
p1086
S'19200'
p1087
ssS'name'
p1088
S'Arduino NG or older w/ ATmega168'
p1089
saa(lp1090
S'atmega8'
p1091
a(dp1092
S'build'
p1093
(dp1094
S'core'
p1095
S'arduino'
p1096
sS'mcu'
p1097
S'atmega8'
p1098
sS'f_cpu'
p1099
S'16000000L'
p1100
sS'variant'
p1101
S'standard'
p1102
ssS'bootloader'
p1103
(dp1104
S'high_fuses'
p1105
S'0xca'
p1106
sS'low_fuses'
p1107
S'0xdf'
p1108
sS'lock_bits'
p1109
S'0x0F'
p1110
sS'file'
p1111
S'ATmegaBOOT-prod-firmware-2009-11-07.hex'
p1112
sS'path'
p1113
S'atmega8'
p1114
sS'unlock_bits'
p1115
S'0x3F'
p1116
ssS'upload'
p1117
(dp1118
S'protocol'
p1119
S'arduino'
p1120
sS'maximum_size'
p1121
S'7168'
p1122
sS'speed'
p1123
S'19200'
p1124
ssS'name'
p1125
S'Arduino NG or older w/ ATmega8'
p1126
saa(lp1127
S'robotControl'
p1128
a(dp1129
S'build'
p1130
(dp1131
S'core'
p1132
S'robot'
p1133
sS'f_cpu'
p1134
S'16000000L'
p1135
sS'vid'
p1136
S'0x2341'
p1137
sS'pid'
p1138
S'0x8038'
p1139
sS'variant'
p1140
S'robot_control'
p1141
sS'mcu'
p1142
S'atmega32u4'
p1143
ssS'bootloader'
p1144
(dp1145
S'extended_fuses'
p1146
S'0xcb'
p1147
sS'high_fuses'
p1148
S'0xd8'
p1149
sS'low_fuses'
p1150
S'0xff'
p1151
sS'lock_bits'
p1152
S'0x2F'
p1153
sS'file'
p1154
S'Caterina-Robot-Control.hex'
p1155
sS'path'
p1156
S'caterina-Arduino_Robot'
p1157
sS'unlock_bits'
p1158
S'0x3F'
p1159
ssS'upload'
p1160
(dp1161
S'protocol'
p1162
S'avr109'
p1163
sS'maximum_size'
p1164
S'28672'
p1165
sS'speed'
p1166
S'57600'
p1167
sS'disable_flushing'
p1168
S'true'
p1169
ssS'name'
p1170
S'Arduino Robot Control'
p1171
saa(lp1172
S'robotMotor'
p1173
a(dp1174
S'build'
p1175
(dp1176
S'core'
p1177
S'robot'
p1178
sS'f_cpu'
p1179
S'16000000L'
p1180
sS'vid'
p1181
S'0x2341'
p1182
sS'pid'
p1183
S'0x8039'
p1184
sS'variant'
p1185
S'robot_motor'
p1186
sS'mcu'
p1187
S'atmega32u4'
p1188
ssS'bootloader'
p1189
(dp1190
S'extended_fuses'
p1191
S'0xcb'
p1192
sS'high_fuses'
p1193
S'0xd8'
p1194
sS'low_fuses'
p1195
S'0xff'
p1196
sS'lock_bits'
p1197
S'0x2F'
p1198
sS'file'
p1199
S'Caterina-Robot-Motor.hex'
p1200
sS'path'
p1201
S'caterina-Arduino_Robot'
p1202
sS'unlock_bits'
p1203
S'0x3F'
p1204
ssS'upload'
p1205
(dp1206
S'protocol'
p1207
S'avr109'
p1208
sS'maximum_size'
p1209
S'28672'
p1210
sS'speed'
p1211
S'57600'
p1212
sS'disable_flushing'
p1213
S'true'
p1214
ssS'name'
p1215
S'Arduino Robot Motor'
p1216
saatp1217
Rp1218
(dp1219
S'default'
p1220
S'uno'
p1221
sbtp1222
a(S'used_libs'
p1223
(lp1224
S'/usr/share/arduino/hardware/arduino/cores/arduino'
p1225
aS'lib/ros_lib'
p1226
atp1227
a(S'make'
p1228
S'/usr/share/arduino/hardware/tools/avr/bin/make'
p1229
tp1230
a(S'arduino_libraries_dir'
p1231
S'/usr/share/arduino/libraries'
p1232
tp1233
a(S'cxx'
p1234
S'/usr/share/arduino/hardware/tools/avr/bin/avr-g++'
p1235
tp1236
a(S'cflags'
p1237
g2
(g3
g4
(lp1238
tp1239
Rp1240
tp1241
a(S'cxxflags'
p1242
g2
(g3
g4
(lp1243
S'-fno-exceptions'
p1244
atp1245
Rp1246
tp1247
a(S'arduino_variants_dir'
p1248
S'/usr/share/arduino/hardware/arduino/variants'
p1249
tp1250
a(S'serial'
p1251
S'/usr/bin/picocom'
p1252
tp1253
a(S'stty'
p1254
S'/bin/stty'
p1255
tp1256
a(S'version.txt'
p1257
S'/usr/share/arduino/lib/version.txt'
p1258
tp1259
a(S'arduino_core_dir'
p1260
g1225
tp1261
a(S'boards.txt'
p1262
S'/usr/share/arduino/hardware/arduino/boards.txt'
p1263
tp1264
a(S'avrdude.conf'
p1265
S'/usr/share/arduino/hardware/tools/avrdude.conf'
p1266
tp1267
a(S'deps'
p1268
g2
(g3
g4
(lp1269
S'.build/mega2560/src/dependencies.d'
p1270
aS'.build/mega2560/arduino/dependencies.d'
p1271
aS'.build/mega2560/ros_lib/dependencies.d'
p1272
atp1273
Rp1274
tp1275
a.