(lp0
(S'cppflags'
p1
ccopy_reg
_reconstructor
p2
(cino.utils
SpaceList
p3
c__builtin__
list
p4
(lp5
S'-mmcu=atmega2560'
p6
aS'-DF_CPU=16000000L'
p7
aS'-DARDUINO=105'
p8
aS'-I/usr/share/arduino/hardware/arduino/cores/arduino'
p9
aS'-ffunction-sections'
p10
aS'-fdata-sections'
p11
aS'-g'
p12
aS'-Os'
p13
aS'-w'
p14
aS'-I/usr/share/arduino/hardware/arduino/variants/mega'
p15
aS'-I/usr/share/arduino/hardware/arduino/cores/arduino'
p16
aS'-I/usr/share/arduino/hardware/arduino/cores/arduino/avr-libc'
p17
aS'-Ilib/ros_lib'
p18
aS'-Ilib/ros_lib/tests'
p19
aS'-Ilib/ros_lib/rospy_tutorials'
p20
aS'-Ilib/ros_lib/actionlib'
p21
aS'-Ilib/ros_lib/turtle_actionlib'
p22
aS'-Ilib/ros_lib/bond'
p23
aS'-Ilib/ros_lib/rosgraph_msgs'
p24
aS'-Ilib/ros_lib/zeroconf_msgs'
p25
aS'-Ilib/ros_lib/pcl_msgs'
p26
aS'-Ilib/ros_lib/gateway_msgs'
p27
aS'-Ilib/ros_lib/capabilities'
p28
aS'-Ilib/ros_lib/rocon_std_msgs'
p29
aS'-Ilib/ros_lib/find_object_2d'
p30
aS'-Ilib/ros_lib/polled_camera'
p31
aS'-Ilib/ros_lib/base_local_planner'
p32
aS'-Ilib/ros_lib/actionlib_tutorials'
p33
aS'-Ilib/ros_lib/image_recognition_msgs'
p34
aS'-Ilib/ros_lib/create_node'
p35
aS'-Ilib/ros_lib/rocon_interaction_msgs'
p36
aS'-Ilib/ros_lib/navfn'
p37
aS'-Ilib/ros_lib/statistics_msgs'
p38
aS'-Ilib/ros_lib/roscpp_tutorials'
p39
aS'-Ilib/ros_lib/image_view2'
p40
aS'-Ilib/ros_lib/turtlesim'
p41
aS'-Ilib/ros_lib/map_msgs'
p42
aS'-Ilib/ros_lib/robot_pose_ekf'
p43
aS'-Ilib/ros_lib/theora_image_transport'
p44
aS'-Ilib/ros_lib/stereo_msgs'
p45
aS'-Ilib/ros_lib/rosserial_mbed'
p46
aS'-Ilib/ros_lib/roscpp'
p47
aS'-Ilib/ros_lib/nodelet'
p48
aS'-Ilib/ros_lib/image_exposure_msgs'
p49
aS'-Ilib/ros_lib/multimaster_msgs'
p50
aS'-Ilib/ros_lib/twist_mux_msgs'
p51
aS'-Ilib/ros_lib/kobuki_msgs'
p52
aS'-Ilib/ros_lib/uuid_msgs'
p53
aS'-Ilib/ros_lib/control_msgs'
p54
aS'-Ilib/ros_lib/actionlib_msgs'
p55
aS'-Ilib/ros_lib/topic_tools'
p56
aS'-Ilib/ros_lib/calibration_msgs'
p57
aS'-Ilib/ros_lib/move_base_msgs'
p58
aS'-Ilib/ros_lib/opencv_apps'
p59
aS'-Ilib/ros_lib/dynamic_reconfigure'
p60
aS'-Ilib/ros_lib/smach_msgs'
p61
aS'-Ilib/ros_lib/rocon_service_pair_msgs'
p62
aS'-Ilib/ros_lib/realsense2_camera'
p63
aS'-Ilib/ros_lib/tf2_msgs'
p64
aS'-Ilib/ros_lib/robot_localization'
p65
aS'-Ilib/ros_lib/multimaster_msgs_fkie'
p66
aS'-Ilib/ros_lib/shape_msgs'
p67
aS'-Ilib/ros_lib/rosserial_arduino'
p68
aS'-Ilib/ros_lib/visualization_msgs'
p69
aS'-Ilib/ros_lib/nav_msgs'
p70
aS'-Ilib/ros_lib/geometry_msgs'
p71
aS'-Ilib/ros_lib/rtabmap_ros'
p72
aS'-Ilib/ros_lib/rocon_app_manager_msgs'
p73
aS'-Ilib/ros_lib/diagnostic_msgs'
p74
aS'-Ilib/ros_lib/trajectory_msgs'
p75
aS'-Ilib/ros_lib/ros'
p76
aS'-Ilib/ros_lib/std_msgs'
p77
aS'-Ilib/ros_lib/costmap_2d'
p78
aS'-Ilib/ros_lib/sensor_msgs'
p79
aS'-Ilib/ros_lib/controller_manager_msgs'
p80
aS'-Ilib/ros_lib/laser_assembler'
p81
aS'-Ilib/ros_lib/rosserial_msgs'
p82
aS'-Ilib/ros_lib/geographic_msgs'
p83
aS'-Ilib/ros_lib/tf'
p84
aS'-Ilib/ros_lib/gazebo_msgs'
p85
aS'-Ilib/ros_lib/octomap_msgs'
p86
aS'-Ilib/ros_lib/image_cb_detector'
p87
aS'-Ilib/ros_lib/control_toolbox'
p88
aS'-Ilib/ros_lib/std_srvs'
p89
aS'-Ilib/ros_lib/tests/array_test'
p90
aS'-Ilib/ros_lib/tests/time_test'
p91
aS'-Ilib/ros_lib/tests/float64_test'
p92
atp93
Rp94
tp95
a(S'cxx'
p96
S'/usr/share/arduino/hardware/tools/avr/bin/avr-g++'
p97
tp98
a(S'build_dir'
p99
S'.build/mega2560'
p100
tp101
a(S'avrdude'
p102
S'/usr/share/arduino/hardware/tools/avrdude'
p103
tp104
a(S'ar'
p105
S'/usr/share/arduino/hardware/tools/avr/bin/avr-ar'
p106
tp107
a(S'names'
p108
(dp109
S'cpp'
p110
S'%s.cpp'
p111
sS'obj'
p112
S'%s.o'
p113
sS'lib'
p114
S'lib%s.a'
p115
sS'deps'
p116
S'%s.d'
p117
stp118
a(S'ldflags'
p119
g2
(g3
g4
(lp120
g6
aS'-Wl,-Os'
p121
aS'-Wl,--gc-sections'
p122
atp123
Rp124
tp125
a(S'arduino_lib_version'
p126
g2
(cino.environment
Version
p127
c__builtin__
tuple
p128
(I1
I0
I5
tp129
tp130
Rp131
tp132
a(S'objcopy'
p133
S'/usr/share/arduino/hardware/tools/avr/bin/avr-objcopy'
p134
tp135
a(S'board_models'
p136
cino.environment
BoardModels
p137
((lp138
(lp139
S'uno'
p140
a(dp141
S'bootloader'
p142
(dp143
S'extended_fuses'
p144
S'0x05'
p145
sS'high_fuses'
p146
S'0xde'
p147
sS'low_fuses'
p148
S'0xff'
p149
sS'lock_bits'
p150
S'0x0F'
p151
sS'file'
p152
S'optiboot_atmega328.hex'
p153
sS'path'
p154
S'optiboot'
p155
sS'unlock_bits'
p156
S'0x3F'
p157
ssS'upload'
p158
(dp159
S'protocol'
p160
S'arduino'
p161
sS'maximum_size'
p162
S'32256'
p163
sS'speed'
p164
S'115200'
p165
ssS'build'
p166
(dp167
S'core'
p168
S'arduino'
p169
sS'mcu'
p170
S'atmega328p'
p171
sS'f_cpu'
p172
S'16000000L'
p173
sS'variant'
p174
S'standard'
p175
ssS'name'
p176
S'Arduino Uno'
p177
saa(lp178
S'atmega328'
p179
a(dp180
S'bootloader'
p181
(dp182
S'extended_fuses'
p183
S'0x05'
p184
sS'high_fuses'
p185
S'0xDA'
p186
sS'low_fuses'
p187
S'0xFF'
p188
sS'lock_bits'
p189
S'0x0F'
p190
sS'file'
p191
S'ATmegaBOOT_168_atmega328.hex'
p192
sS'path'
p193
S'atmega'
p194
sS'unlock_bits'
p195
S'0x3F'
p196
ssS'upload'
p197
(dp198
S'protocol'
p199
S'arduino'
p200
sS'maximum_size'
p201
S'30720'
p202
sS'speed'
p203
S'57600'
p204
ssS'build'
p205
(dp206
S'core'
p207
S'arduino'
p208
sS'mcu'
p209
S'atmega328p'
p210
sS'f_cpu'
p211
S'16000000L'
p212
sS'variant'
p213
S'standard'
p214
ssS'name'
p215
S'Arduino Duemilanove w/ ATmega328'
p216
saa(lp217
S'diecimila'
p218
a(dp219
S'bootloader'
p220
(dp221
S'extended_fuses'
p222
S'0x00'
p223
sS'high_fuses'
p224
S'0xdd'
p225
sS'low_fuses'
p226
S'0xff'
p227
sS'lock_bits'
p228
S'0x0F'
p229
sS'file'
p230
S'ATmegaBOOT_168_diecimila.hex'
p231
sS'path'
p232
S'atmega'
p233
sS'unlock_bits'
p234
S'0x3F'
p235
ssS'upload'
p236
(dp237
S'protocol'
p238
S'arduino'
p239
sS'maximum_size'
p240
S'14336'
p241
sS'speed'
p242
S'19200'
p243
ssS'build'
p244
(dp245
S'core'
p246
S'arduino'
p247
sS'mcu'
p248
S'atmega168'
p249
sS'f_cpu'
p250
S'16000000L'
p251
sS'variant'
p252
S'standard'
p253
ssS'name'
p254
S'Arduino Diecimila or Duemilanove w/ ATmega168'
p255
saa(lp256
S'nano328'
p257
a(dp258
S'bootloader'
p259
(dp260
S'extended_fuses'
p261
S'0x05'
p262
sS'high_fuses'
p263
S'0xDA'
p264
sS'low_fuses'
p265
S'0xFF'
p266
sS'lock_bits'
p267
S'0x0F'
p268
sS'file'
p269
S'ATmegaBOOT_168_atmega328.hex'
p270
sS'path'
p271
S'atmega'
p272
sS'unlock_bits'
p273
S'0x3F'
p274
ssS'upload'
p275
(dp276
S'protocol'
p277
S'arduino'
p278
sS'maximum_size'
p279
S'30720'
p280
sS'speed'
p281
S'57600'
p282
ssS'build'
p283
(dp284
S'core'
p285
S'arduino'
p286
sS'mcu'
p287
S'atmega328p'
p288
sS'f_cpu'
p289
S'16000000L'
p290
sS'variant'
p291
S'eightanaloginputs'
p292
ssS'name'
p293
S'Arduino Nano w/ ATmega328'
p294
saa(lp295
S'nano'
p296
a(dp297
S'bootloader'
p298
(dp299
S'extended_fuses'
p300
S'0x00'
p301
sS'high_fuses'
p302
S'0xdd'
p303
sS'low_fuses'
p304
S'0xff'
p305
sS'lock_bits'
p306
S'0x0F'
p307
sS'file'
p308
S'ATmegaBOOT_168_diecimila.hex'
p309
sS'path'
p310
S'atmega'
p311
sS'unlock_bits'
p312
S'0x3F'
p313
ssS'upload'
p314
(dp315
S'protocol'
p316
S'arduino'
p317
sS'maximum_size'
p318
S'14336'
p319
sS'speed'
p320
S'19200'
p321
ssS'build'
p322
(dp323
S'core'
p324
S'arduino'
p325
sS'mcu'
p326
S'atmega168'
p327
sS'f_cpu'
p328
S'16000000L'
p329
sS'variant'
p330
S'eightanaloginputs'
p331
ssS'name'
p332
S'Arduino Nano w/ ATmega168'
p333
saa(lp334
S'mega2560'
p335
a(dp336
S'bootloader'
p337
(dp338
S'extended_fuses'
p339
S'0xFD'
p340
sS'high_fuses'
p341
S'0xD8'
p342
sS'low_fuses'
p343
S'0xFF'
p344
sS'lock_bits'
p345
S'0x0F'
p346
sS'file'
p347
S'stk500boot_v2_mega2560.hex'
p348
sS'path'
p349
S'stk500v2'
p350
sS'unlock_bits'
p351
S'0x3F'
p352
ssS'upload'
p353
(dp354
S'protocol'
p355
S'wiring'
p356
sS'maximum_size'
p357
S'258048'
p358
sS'speed'
p359
S'115200'
p360
ssS'build'
p361
(dp362
S'core'
p363
S'arduino'
p364
sS'mcu'
p365
S'atmega2560'
p366
sS'f_cpu'
p367
S'16000000L'
p368
sS'variant'
p369
S'mega'
p370
ssS'name'
p371
S'Arduino Mega 2560 or Mega ADK'
p372
saa(lp373
S'mega'
p374
a(dp375
S'bootloader'
p376
(dp377
S'extended_fuses'
p378
S'0xF5'
p379
sS'high_fuses'
p380
S'0xDA'
p381
sS'low_fuses'
p382
S'0xFF'
p383
sS'lock_bits'
p384
S'0x0F'
p385
sS'file'
p386
S'ATmegaBOOT_168_atmega1280.hex'
p387
sS'path'
p388
S'atmega'
p389
sS'unlock_bits'
p390
S'0x3F'
p391
ssS'upload'
p392
(dp393
S'protocol'
p394
S'arduino'
p395
sS'maximum_size'
p396
S'126976'
p397
sS'speed'
p398
S'57600'
p399
ssS'build'
p400
(dp401
S'core'
p402
S'arduino'
p403
sS'mcu'
p404
S'atmega1280'
p405
sS'f_cpu'
p406
S'16000000L'
p407
sS'variant'
p408
S'mega'
p409
ssS'name'
p410
S'Arduino Mega (ATmega1280)'
p411
saa(lp412
S'leonardo'
p413
a(dp414
S'bootloader'
p415
(dp416
S'extended_fuses'
p417
S'0xcb'
p418
sS'high_fuses'
p419
S'0xd8'
p420
sS'low_fuses'
p421
S'0xff'
p422
sS'lock_bits'
p423
S'0x2F'
p424
sS'file'
p425
S'Caterina-Leonardo.hex'
p426
sS'path'
p427
S'caterina'
p428
sS'unlock_bits'
p429
S'0x3F'
p430
ssS'upload'
p431
(dp432
S'protocol'
p433
S'avr109'
p434
sS'maximum_size'
p435
S'28672'
p436
sS'speed'
p437
S'57600'
p438
sS'disable_flushing'
p439
S'true'
p440
ssS'build'
p441
(dp442
S'core'
p443
S'arduino'
p444
sS'f_cpu'
p445
S'16000000L'
p446
sS'vid'
p447
S'0x2341'
p448
sS'pid'
p449
S'0x8036'
p450
sS'variant'
p451
S'leonardo'
p452
sS'mcu'
p453
S'atmega32u4'
p454
ssS'name'
p455
S'Arduino Leonardo'
p456
saa(lp457
S'esplora'
p458
a(dp459
S'bootloader'
p460
(dp461
S'extended_fuses'
p462
S'0xcb'
p463
sS'high_fuses'
p464
S'0xd8'
p465
sS'low_fuses'
p466
S'0xff'
p467
sS'lock_bits'
p468
S'0x2F'
p469
sS'file'
p470
S'Caterina-Esplora.hex'
p471
sS'path'
p472
S'caterina'
p473
sS'unlock_bits'
p474
S'0x3F'
p475
ssS'upload'
p476
(dp477
S'protocol'
p478
S'avr109'
p479
sS'maximum_size'
p480
S'28672'
p481
sS'speed'
p482
S'57600'
p483
sS'disable_flushing'
p484
S'true'
p485
ssS'build'
p486
(dp487
S'core'
p488
S'arduino'
p489
sS'f_cpu'
p490
S'16000000L'
p491
sS'vid'
p492
S'0x2341'
p493
sS'pid'
p494
S'0x803C'
p495
sS'variant'
p496
S'leonardo'
p497
sS'mcu'
p498
S'atmega32u4'
p499
ssS'name'
p500
S'Arduino Esplora'
p501
saa(lp502
S'micro'
p503
a(dp504
S'bootloader'
p505
(dp506
S'extended_fuses'
p507
S'0xcb'
p508
sS'high_fuses'
p509
S'0xd8'
p510
sS'low_fuses'
p511
S'0xff'
p512
sS'lock_bits'
p513
S'0x2F'
p514
sS'file'
p515
S'Caterina-Micro.hex'
p516
sS'path'
p517
S'caterina'
p518
sS'unlock_bits'
p519
S'0x3F'
p520
ssS'upload'
p521
(dp522
S'protocol'
p523
S'avr109'
p524
sS'maximum_size'
p525
S'28672'
p526
sS'speed'
p527
S'57600'
p528
sS'disable_flushing'
p529
S'true'
p530
ssS'build'
p531
(dp532
S'core'
p533
S'arduino'
p534
sS'f_cpu'
p535
S'16000000L'
p536
sS'vid'
p537
S'0x2341'
p538
sS'pid'
p539
S'0x8037'
p540
sS'variant'
p541
S'micro'
p542
sS'mcu'
p543
S'atmega32u4'
p544
ssS'name'
p545
S'Arduino Micro'
p546
saa(lp547
S'mini328'
p548
a(dp549
S'bootloader'
p550
(dp551
S'extended_fuses'
p552
S'0x05'
p553
sS'high_fuses'
p554
S'0xd8'
p555
sS'low_fuses'
p556
S'0xff'
p557
sS'lock_bits'
p558
S'0x0F'
p559
sS'file'
p560
S'optiboot_atmega328-Mini.hex'
p561
sS'path'
p562
S'optiboot'
p563
sS'unlock_bits'
p564
S'0x3F'
p565
ssS'upload'
p566
(dp567
S'protocol'
p568
S'arduino'
p569
sS'maximum_size'
p570
S'28672'
p571
sS'speed'
p572
S'115200'
p573
ssS'build'
p574
(dp575
S'core'
p576
S'arduino'
p577
sS'mcu'
p578
S'atmega328p'
p579
sS'f_cpu'
p580
S'16000000L'
p581
sS'variant'
p582
S'eightanaloginputs'
p583
ssS'name'
p584
S'Arduino Mini w/ ATmega328'
p585
saa(lp586
S'mini'
p587
a(dp588
S'bootloader'
p589
(dp590
S'extended_fuses'
p591
S'0x00'
p592
sS'high_fuses'
p593
S'0xdd'
p594
sS'low_fuses'
p595
S'0xff'
p596
sS'lock_bits'
p597
S'0x0F'
p598
sS'file'
p599
S'ATmegaBOOT_168_ng.hex'
p600
sS'path'
p601
S'atmega'
p602
sS'unlock_bits'
p603
S'0x3F'
p604
ssS'upload'
p605
(dp606
S'protocol'
p607
S'arduino'
p608
sS'maximum_size'
p609
S'14336'
p610
sS'speed'
p611
S'19200'
p612
ssS'build'
p613
(dp614
S'core'
p615
S'arduino'
p616
sS'mcu'
p617
S'atmega168'
p618
sS'f_cpu'
p619
S'16000000L'
p620
sS'variant'
p621
S'eightanaloginputs'
p622
ssS'name'
p623
S'Arduino Mini w/ ATmega168'
p624
saa(lp625
S'ethernet'
p626
a(dp627
S'bootloader'
p628
(dp629
S'extended_fuses'
p630
S'0x05'
p631
sS'high_fuses'
p632
S'0xde'
p633
sS'low_fuses'
p634
S'0xff'
p635
sS'lock_bits'
p636
S'0x0F'
p637
sS'file'
p638
S'optiboot_atmega328.hex'
p639
sS'path'
p640
S'optiboot'
p641
sS'unlock_bits'
p642
S'0x3F'
p643
ssS'upload'
p644
(dp645
S'protocol'
p646
S'arduino'
p647
sS'maximum_size'
p648
S'32256'
p649
sS'speed'
p650
S'115200'
p651
ssS'build'
p652
(dp653
S'variant'
p654
S'standard'
p655
sS'mcu'
p656
S'atmega328p'
p657
sS'f_cpu'
p658
S'16000000L'
p659
sS'core'
p660
S'arduino'
p661
ssS'name'
p662
S'Arduino Ethernet'
p663
saa(lp664
S'fio'
p665
a(dp666
S'bootloader'
p667
(dp668
S'extended_fuses'
p669
S'0x05'
p670
sS'high_fuses'
p671
S'0xDA'
p672
sS'low_fuses'
p673
S'0xFF'
p674
sS'lock_bits'
p675
S'0x0F'
p676
sS'file'
p677
S'ATmegaBOOT_168_atmega328_pro_8MHz.hex'
p678
sS'path'
p679
S'arduino:atmega'
p680
sS'unlock_bits'
p681
S'0x3F'
p682
ssS'upload'
p683
(dp684
S'protocol'
p685
S'arduino'
p686
sS'maximum_size'
p687
S'30720'
p688
sS'speed'
p689
S'57600'
p690
ssS'build'
p691
(dp692
S'core'
p693
S'arduino'
p694
sS'mcu'
p695
S'atmega328p'
p696
sS'f_cpu'
p697
S'8000000L'
p698
sS'variant'
p699
S'eightanaloginputs'
p700
ssS'name'
p701
S'Arduino Fio'
p702
saa(lp703
S'bt328'
p704
a(dp705
S'bootloader'
p706
(dp707
S'extended_fuses'
p708
S'0x05'
p709
sS'high_fuses'
p710
S'0xd8'
p711
sS'low_fuses'
p712
S'0xff'
p713
sS'lock_bits'
p714
S'0x0F'
p715
sS'file'
p716
S'ATmegaBOOT_168_atmega328_bt.hex'
p717
sS'path'
p718
S'bt'
p719
sS'unlock_bits'
p720
S'0x3F'
p721
ssS'upload'
p722
(dp723
S'protocol'
p724
S'arduino'
p725
sS'maximum_size'
p726
S'28672'
p727
sS'speed'
p728
S'19200'
p729
sS'disable_flushing'
p730
S'true'
p731
ssS'build'
p732
(dp733
S'core'
p734
S'arduino'
p735
sS'mcu'
p736
S'atmega328p'
p737
sS'f_cpu'
p738
S'16000000L'
p739
sS'variant'
p740
S'eightanaloginputs'
p741
ssS'name'
p742
S'Arduino BT w/ ATmega328'
p743
saa(lp744
S'bt'
p745
a(dp746
S'bootloader'
p747
(dp748
S'extended_fuses'
p749
S'0x00'
p750
sS'high_fuses'
p751
S'0xdd'
p752
sS'low_fuses'
p753
S'0xff'
p754
sS'lock_bits'
p755
S'0x0F'
p756
sS'file'
p757
S'ATmegaBOOT_168.hex'
p758
sS'path'
p759
S'bt'
p760
sS'unlock_bits'
p761
S'0x3F'
p762
ssS'upload'
p763
(dp764
S'protocol'
p765
S'arduino'
p766
sS'maximum_size'
p767
S'14336'
p768
sS'speed'
p769
S'19200'
p770
sS'disable_flushing'
p771
S'true'
p772
ssS'build'
p773
(dp774
S'core'
p775
S'arduino'
p776
sS'mcu'
p777
S'atmega168'
p778
sS'f_cpu'
p779
S'16000000L'
p780
sS'variant'
p781
S'eightanaloginputs'
p782
ssS'name'
p783
S'Arduino BT w/ ATmega168'
p784
saa(lp785
S'LilyPadUSB'
p786
a(dp787
S'bootloader'
p788
(dp789
S'extended_fuses'
p790
S'0xce'
p791
sS'high_fuses'
p792
S'0xd8'
p793
sS'low_fuses'
p794
S'0xff'
p795
sS'lock_bits'
p796
S'0x2F'
p797
sS'file'
p798
S'Caterina-LilyPadUSB.hex'
p799
sS'path'
p800
S'caterina-LilyPadUSB'
p801
sS'unlock_bits'
p802
S'0x3F'
p803
ssS'upload'
p804
(dp805
S'protocol'
p806
S'avr109'
p807
sS'maximum_size'
p808
S'28672'
p809
sS'speed'
p810
S'57600'
p811
sS'disable_flushing'
p812
S'true'
p813
ssS'build'
p814
(dp815
S'core'
p816
S'arduino'
p817
sS'f_cpu'
p818
S'8000000L'
p819
sS'vid'
p820
S'0x1B4F'
p821
sS'pid'
p822
S'0x9208'
p823
sS'variant'
p824
S'leonardo'
p825
sS'mcu'
p826
S'atmega32u4'
p827
ssS'name'
p828
S'LilyPad Arduino USB'
p829
saa(lp830
S'lilypad328'
p831
a(dp832
S'bootloader'
p833
(dp834
S'extended_fuses'
p835
S'0x05'
p836
sS'high_fuses'
p837
S'0xDA'
p838
sS'low_fuses'
p839
S'0xFF'
p840
sS'lock_bits'
p841
S'0x0F'
p842
sS'file'
p843
S'ATmegaBOOT_168_atmega328_pro_8MHz.hex'
p844
sS'path'
p845
S'atmega'
p846
sS'unlock_bits'
p847
S'0x3F'
p848
ssS'upload'
p849
(dp850
S'protocol'
p851
S'arduino'
p852
sS'maximum_size'
p853
S'30720'
p854
sS'speed'
p855
S'57600'
p856
ssS'build'
p857
(dp858
S'core'
p859
S'arduino'
p860
sS'mcu'
p861
S'atmega328p'
p862
sS'f_cpu'
p863
S'8000000L'
p864
sS'variant'
p865
S'standard'
p866
ssS'name'
p867
S'LilyPad Arduino w/ ATmega328'
p868
saa(lp869
S'lilypad'
p870
a(dp871
S'bootloader'
p872
(dp873
S'extended_fuses'
p874
S'0x00'
p875
sS'high_fuses'
p876
S'0xdd'
p877
sS'low_fuses'
p878
S'0xe2'
p879
sS'lock_bits'
p880
S'0x0F'
p881
sS'file'
p882
S'LilyPadBOOT_168.hex'
p883
sS'path'
p884
S'lilypad'
p885
sS'unlock_bits'
p886
S'0x3F'
p887
ssS'upload'
p888
(dp889
S'protocol'
p890
S'arduino'
p891
sS'maximum_size'
p892
S'14336'
p893
sS'speed'
p894
S'19200'
p895
ssS'build'
p896
(dp897
S'core'
p898
S'arduino'
p899
sS'mcu'
p900
S'atmega168'
p901
sS'f_cpu'
p902
S'8000000L'
p903
sS'variant'
p904
S'standard'
p905
ssS'name'
p906
S'LilyPad Arduino w/ ATmega168'
p907
saa(lp908
S'pro5v328'
p909
a(dp910
S'bootloader'
p911
(dp912
S'extended_fuses'
p913
S'0x05'
p914
sS'high_fuses'
p915
S'0xDA'
p916
sS'low_fuses'
p917
S'0xFF'
p918
sS'lock_bits'
p919
S'0x0F'
p920
sS'file'
p921
S'ATmegaBOOT_168_atmega328.hex'
p922
sS'path'
p923
S'atmega'
p924
sS'unlock_bits'
p925
S'0x3F'
p926
ssS'upload'
p927
(dp928
S'protocol'
p929
S'arduino'
p930
sS'maximum_size'
p931
S'30720'
p932
sS'speed'
p933
S'57600'
p934
ssS'build'
p935
(dp936
S'core'
p937
S'arduino'
p938
sS'mcu'
p939
S'atmega328p'
p940
sS'f_cpu'
p941
S'16000000L'
p942
sS'variant'
p943
S'standard'
p944
ssS'name'
p945
S'Arduino Pro or Pro Mini (5V, 16 MHz) w/ ATmega328'
p946
saa(lp947
S'pro5v'
p948
a(dp949
S'bootloader'
p950
(dp951
S'extended_fuses'
p952
S'0x00'
p953
sS'high_fuses'
p954
S'0xdd'
p955
sS'low_fuses'
p956
S'0xff'
p957
sS'lock_bits'
p958
S'0x0F'
p959
sS'file'
p960
S'ATmegaBOOT_168_diecimila.hex'
p961
sS'path'
p962
S'atmega'
p963
sS'unlock_bits'
p964
S'0x3F'
p965
ssS'upload'
p966
(dp967
S'protocol'
p968
S'arduino'
p969
sS'maximum_size'
p970
S'14336'
p971
sS'speed'
p972
S'19200'
p973
ssS'build'
p974
(dp975
S'core'
p976
S'arduino'
p977
sS'mcu'
p978
S'atmega168'
p979
sS'f_cpu'
p980
S'16000000L'
p981
sS'variant'
p982
S'standard'
p983
ssS'name'
p984
S'Arduino Pro or Pro Mini (5V, 16 MHz) w/ ATmega168'
p985
saa(lp986
S'pro328'
p987
a(dp988
S'bootloader'
p989
(dp990
S'extended_fuses'
p991
S'0x05'
p992
sS'high_fuses'
p993
S'0xDA'
p994
sS'low_fuses'
p995
S'0xFF'
p996
sS'lock_bits'
p997
S'0x0F'
p998
sS'file'
p999
S'ATmegaBOOT_168_atmega328_pro_8MHz.hex'
p1000
sS'path'
p1001
S'atmega'
p1002
sS'unlock_bits'
p1003
S'0x3F'
p1004
ssS'upload'
p1005
(dp1006
S'protocol'
p1007
S'arduino'
p1008
sS'maximum_size'
p1009
S'30720'
p1010
sS'speed'
p1011
S'57600'
p1012
ssS'build'
p1013
(dp1014
S'core'
p1015
S'arduino'
p1016
sS'mcu'
p1017
S'atmega328p'
p1018
sS'f_cpu'
p1019
S'8000000L'
p1020
sS'variant'
p1021
S'standard'
p1022
ssS'name'
p1023
S'Arduino Pro or Pro Mini (3.3V, 8 MHz) w/ ATmega328'
p1024
saa(lp1025
S'pro'
p1026
a(dp1027
S'bootloader'
p1028
(dp1029
S'extended_fuses'
p1030
S'0x00'
p1031
sS'high_fuses'
p1032
S'0xdd'
p1033
sS'low_fuses'
p1034
S'0xc6'
p1035
sS'lock_bits'
p1036
S'0x0F'
p1037
sS'file'
p1038
S'ATmegaBOOT_168_pro_8MHz.hex'
p1039
sS'path'
p1040
S'atmega'
p1041
sS'unlock_bits'
p1042
S'0x3F'
p1043
ssS'upload'
p1044
(dp1045
S'protocol'
p1046
S'arduino'
p1047
sS'maximum_size'
p1048
S'14336'
p1049
sS'speed'
p1050
S'19200'
p1051
ssS'build'
p1052
(dp1053
S'core'
p1054
S'arduino'
p1055
sS'mcu'
p1056
S'atmega168'
p1057
sS'f_cpu'
p1058
S'8000000L'
p1059
sS'variant'
p1060
S'standard'
p1061
ssS'name'
p1062
S'Arduino Pro or Pro Mini (3.3V, 8 MHz) w/ ATmega168'
p1063
saa(lp1064
S'atmega168'
p1065
a(dp1066
S'bootloader'
p1067
(dp1068
S'extended_fuses'
p1069
S'0x00'
p1070
sS'high_fuses'
p1071
S'0xdd'
p1072
sS'low_fuses'
p1073
S'0xff'
p1074
sS'lock_bits'
p1075
S'0x0F'
p1076
sS'file'
p1077
S'ATmegaBOOT_168_ng.hex'
p1078
sS'path'
p1079
S'atmega'
p1080
sS'unlock_bits'
p1081
S'0x3F'
p1082
ssS'upload'
p1083
(dp1084
S'protocol'
p1085
S'arduino'
p1086
sS'maximum_size'
p1087
S'14336'
p1088
sS'speed'
p1089
S'19200'
p1090
ssS'build'
p1091
(dp1092
S'core'
p1093
S'arduino'
p1094
sS'mcu'
p1095
S'atmega168'
p1096
sS'f_cpu'
p1097
S'16000000L'
p1098
sS'variant'
p1099
S'standard'
p1100
ssS'name'
p1101
S'Arduino NG or older w/ ATmega168'
p1102
saa(lp1103
S'atmega8'
p1104
a(dp1105
S'bootloader'
p1106
(dp1107
S'high_fuses'
p1108
S'0xca'
p1109
sS'low_fuses'
p1110
S'0xdf'
p1111
sS'lock_bits'
p1112
S'0x0F'
p1113
sS'file'
p1114
S'ATmegaBOOT-prod-firmware-2009-11-07.hex'
p1115
sS'path'
p1116
S'atmega8'
p1117
sS'unlock_bits'
p1118
S'0x3F'
p1119
ssS'upload'
p1120
(dp1121
S'protocol'
p1122
S'arduino'
p1123
sS'maximum_size'
p1124
S'7168'
p1125
sS'speed'
p1126
S'19200'
p1127
ssS'build'
p1128
(dp1129
S'core'
p1130
S'arduino'
p1131
sS'mcu'
p1132
S'atmega8'
p1133
sS'f_cpu'
p1134
S'16000000L'
p1135
sS'variant'
p1136
S'standard'
p1137
ssS'name'
p1138
S'Arduino NG or older w/ ATmega8'
p1139
saa(lp1140
S'robotControl'
p1141
a(dp1142
S'bootloader'
p1143
(dp1144
S'extended_fuses'
p1145
S'0xcb'
p1146
sS'high_fuses'
p1147
S'0xd8'
p1148
sS'low_fuses'
p1149
S'0xff'
p1150
sS'lock_bits'
p1151
S'0x2F'
p1152
sS'file'
p1153
S'Caterina-Robot-Control.hex'
p1154
sS'path'
p1155
S'caterina-Arduino_Robot'
p1156
sS'unlock_bits'
p1157
S'0x3F'
p1158
ssS'upload'
p1159
(dp1160
S'protocol'
p1161
S'avr109'
p1162
sS'maximum_size'
p1163
S'28672'
p1164
sS'speed'
p1165
S'57600'
p1166
sS'disable_flushing'
p1167
S'true'
p1168
ssS'build'
p1169
(dp1170
S'core'
p1171
S'robot'
p1172
sS'f_cpu'
p1173
S'16000000L'
p1174
sS'vid'
p1175
S'0x2341'
p1176
sS'pid'
p1177
S'0x8038'
p1178
sS'variant'
p1179
S'robot_control'
p1180
sS'mcu'
p1181
S'atmega32u4'
p1182
ssS'name'
p1183
S'Arduino Robot Control'
p1184
saa(lp1185
S'robotMotor'
p1186
a(dp1187
S'bootloader'
p1188
(dp1189
S'extended_fuses'
p1190
S'0xcb'
p1191
sS'high_fuses'
p1192
S'0xd8'
p1193
sS'low_fuses'
p1194
S'0xff'
p1195
sS'lock_bits'
p1196
S'0x2F'
p1197
sS'file'
p1198
S'Caterina-Robot-Motor.hex'
p1199
sS'path'
p1200
S'caterina-Arduino_Robot'
p1201
sS'unlock_bits'
p1202
S'0x3F'
p1203
ssS'upload'
p1204
(dp1205
S'protocol'
p1206
S'avr109'
p1207
sS'maximum_size'
p1208
S'28672'
p1209
sS'speed'
p1210
S'57600'
p1211
sS'disable_flushing'
p1212
S'true'
p1213
ssS'build'
p1214
(dp1215
S'core'
p1216
S'robot'
p1217
sS'f_cpu'
p1218
S'16000000L'
p1219
sS'vid'
p1220
S'0x2341'
p1221
sS'pid'
p1222
S'0x8039'
p1223
sS'variant'
p1224
S'robot_motor'
p1225
sS'mcu'
p1226
S'atmega32u4'
p1227
ssS'name'
p1228
S'Arduino Robot Motor'
p1229
saatp1230
Rp1231
(dp1232
S'default'
p1233
S'uno'
p1234
sbtp1235
a(S'used_libs'
p1236
(lp1237
S'/usr/share/arduino/hardware/arduino/cores/arduino'
p1238
aS'lib/ros_lib'
p1239
atp1240
a(S'make'
p1241
S'/usr/share/arduino/hardware/tools/avr/bin/make'
p1242
tp1243
a(S'arduino_libraries_dir'
p1244
S'/usr/share/arduino/libraries'
p1245
tp1246
a(S'cc'
p1247
S'/usr/share/arduino/hardware/tools/avr/bin/avr-gcc'
p1248
tp1249
a(S'cflags'
p1250
g2
(g3
g4
(lp1251
tp1252
Rp1253
tp1254
a(S'cxxflags'
p1255
g2
(g3
g4
(lp1256
S'-fno-exceptions'
p1257
atp1258
Rp1259
tp1260
a(S'arduino_variants_dir'
p1261
S'/usr/share/arduino/hardware/arduino/variants'
p1262
tp1263
a(S'stty'
p1264
S'/bin/stty'
p1265
tp1266
a(S'version.txt'
p1267
S'/usr/share/arduino/lib/version.txt'
p1268
tp1269
a(S'arduino_core_dir'
p1270
g1238
tp1271
a(S'boards.txt'
p1272
S'/usr/share/arduino/hardware/arduino/boards.txt'
p1273
tp1274
a(S'avrdude.conf'
p1275
S'/usr/share/arduino/hardware/tools/avrdude.conf'
p1276
tp1277
a(S'deps'
p1278
g2
(g3
g4
(lp1279
S'.build/mega2560/src/dependencies.d'
p1280
aS'.build/mega2560/arduino/dependencies.d'
p1281
aS'.build/mega2560/ros_lib/dependencies.d'
p1282
atp1283
Rp1284
tp1285
a.