(lp0
(S'cppflags'
p1
ccopy_reg
_reconstructor
p2
(cino.utils
SpaceList
p3
c__builtin__
list
p4
(lp5
S'-mmcu=atmega2560'
p6
aS'-DF_CPU=16000000L'
p7
aS'-DARDUINO=105'
p8
aS'-I/usr/share/arduino/hardware/arduino/cores/arduino'
p9
aS'-ffunction-sections'
p10
aS'-fdata-sections'
p11
aS'-g'
p12
aS'-Os'
p13
aS'-w'
p14
aS'-I/usr/share/arduino/hardware/arduino/variants/mega'
p15
atp16
Rp17
tp18
a(S'cxx'
p19
S'/usr/share/arduino/hardware/tools/avr/bin/avr-g++'
p20
tp21
a(S'version.txt'
p22
S'/usr/share/arduino/lib/version.txt'
p23
tp24
a(S'used_libs'
p25
(lp26
tp27
a(S'cc'
p28
S'/usr/share/arduino/hardware/tools/avr/bin/avr-gcc'
p29
tp30
a(S'make'
p31
S'/usr/share/arduino/hardware/tools/avr/bin/make'
p32
tp33
a(S'cflags'
p34
g2
(g3
g4
(lp35
tp36
Rp37
tp38
a(S'build_dir'
p39
S'.build/mega2560'
p40
tp41
a(S'arduino_core_dir'
p42
S'/usr/share/arduino/hardware/arduino/cores/arduino'
p43
tp44
a(S'boards.txt'
p45
(lp46
S'/usr/share/arduino/hardware/arduino/boards.txt'
p47
atp48
a(S'cxxflags'
p49
g2
(g3
g4
(lp50
S'-fno-exceptions'
p51
atp52
Rp53
tp54
a(S'arduino_variants_dir'
p55
S'/usr/share/arduino/hardware/arduino/variants'
p56
tp57
a(S'ar'
p58
S'/usr/share/arduino/hardware/tools/avr/bin/avr-ar'
p59
tp60
a(S'names'
p61
(dp62
S'cpp'
p63
S'%s.cpp'
p64
sS'obj'
p65
S'%s.o'
p66
sS'deps'
p67
S'%s.d'
p68
sS'lib'
p69
S'lib%s.a'
p70
stp71
a(S'deps'
p72
g2
(g3
g4
(lp73
S'.build/mega2560/src/dependencies.d'
p74
atp75
Rp76
tp77
a(S'arduino_libraries_dir'
p78
S'/usr/share/arduino/libraries'
p79
tp80
a(S'arduino_lib_version'
p81
g2
(cino.environment
Version
p82
c__builtin__
tuple
p83
(I1
I0
I5
tp84
tp85
Rp86
tp87
a(S'objcopy'
p88
S'/usr/share/arduino/hardware/tools/avr/bin/avr-objcopy'
p89
tp90
a(S'board_models'
p91
cino.environment
BoardModels
p92
((lp93
(lp94
S'uno'
p95
a(dp96
S'_coredir'
p97
S'/usr/share/arduino/hardware/arduino'
p98
sS'bootloader'
p99
(dp100
S'extended_fuses'
p101
S'0x05'
p102
sS'high_fuses'
p103
S'0xde'
p104
sS'low_fuses'
p105
S'0xff'
p106
sS'lock_bits'
p107
S'0x0F'
p108
sS'file'
p109
S'optiboot_atmega328.hex'
p110
sS'path'
p111
S'optiboot'
p112
sS'unlock_bits'
p113
S'0x3F'
p114
ssS'build'
p115
(dp116
S'core'
p117
S'arduino'
p118
sS'mcu'
p119
S'atmega328p'
p120
sS'f_cpu'
p121
S'16000000L'
p122
sS'variant'
p123
S'standard'
p124
ssS'name'
p125
S'Arduino Uno'
p126
sS'upload'
p127
(dp128
S'protocol'
p129
S'arduino'
p130
sS'maximum_size'
p131
S'32256'
p132
sS'speed'
p133
S'115200'
p134
ssaa(lp135
S'atmega328'
p136
a(dp137
g97
S'/usr/share/arduino/hardware/arduino'
p138
sS'bootloader'
p139
(dp140
S'extended_fuses'
p141
S'0x05'
p142
sS'high_fuses'
p143
S'0xDA'
p144
sS'low_fuses'
p145
S'0xFF'
p146
sS'lock_bits'
p147
S'0x0F'
p148
sS'file'
p149
S'ATmegaBOOT_168_atmega328.hex'
p150
sS'path'
p151
S'atmega'
p152
sS'unlock_bits'
p153
S'0x3F'
p154
ssS'build'
p155
(dp156
S'core'
p157
S'arduino'
p158
sS'mcu'
p159
S'atmega328p'
p160
sS'f_cpu'
p161
S'16000000L'
p162
sS'variant'
p163
S'standard'
p164
ssS'name'
p165
S'Arduino Duemilanove w/ ATmega328'
p166
sS'upload'
p167
(dp168
S'protocol'
p169
S'arduino'
p170
sS'maximum_size'
p171
S'30720'
p172
sS'speed'
p173
S'57600'
p174
ssaa(lp175
S'diecimila'
p176
a(dp177
g97
S'/usr/share/arduino/hardware/arduino'
p178
sS'bootloader'
p179
(dp180
S'extended_fuses'
p181
S'0x00'
p182
sS'high_fuses'
p183
S'0xdd'
p184
sS'low_fuses'
p185
S'0xff'
p186
sS'lock_bits'
p187
S'0x0F'
p188
sS'file'
p189
S'ATmegaBOOT_168_diecimila.hex'
p190
sS'path'
p191
S'atmega'
p192
sS'unlock_bits'
p193
S'0x3F'
p194
ssS'build'
p195
(dp196
S'core'
p197
S'arduino'
p198
sS'mcu'
p199
S'atmega168'
p200
sS'f_cpu'
p201
S'16000000L'
p202
sS'variant'
p203
S'standard'
p204
ssS'name'
p205
S'Arduino Diecimila or Duemilanove w/ ATmega168'
p206
sS'upload'
p207
(dp208
S'protocol'
p209
S'arduino'
p210
sS'maximum_size'
p211
S'14336'
p212
sS'speed'
p213
S'19200'
p214
ssaa(lp215
S'nano328'
p216
a(dp217
g97
S'/usr/share/arduino/hardware/arduino'
p218
sS'bootloader'
p219
(dp220
S'extended_fuses'
p221
S'0x05'
p222
sS'high_fuses'
p223
S'0xDA'
p224
sS'low_fuses'
p225
S'0xFF'
p226
sS'lock_bits'
p227
S'0x0F'
p228
sS'file'
p229
S'ATmegaBOOT_168_atmega328.hex'
p230
sS'path'
p231
S'atmega'
p232
sS'unlock_bits'
p233
S'0x3F'
p234
ssS'build'
p235
(dp236
S'core'
p237
S'arduino'
p238
sS'mcu'
p239
S'atmega328p'
p240
sS'f_cpu'
p241
S'16000000L'
p242
sS'variant'
p243
S'eightanaloginputs'
p244
ssS'name'
p245
S'Arduino Nano w/ ATmega328'
p246
sS'upload'
p247
(dp248
S'protocol'
p249
S'arduino'
p250
sS'maximum_size'
p251
S'30720'
p252
sS'speed'
p253
S'57600'
p254
ssaa(lp255
S'nano'
p256
a(dp257
g97
S'/usr/share/arduino/hardware/arduino'
p258
sS'bootloader'
p259
(dp260
S'extended_fuses'
p261
S'0x00'
p262
sS'high_fuses'
p263
S'0xdd'
p264
sS'low_fuses'
p265
S'0xff'
p266
sS'lock_bits'
p267
S'0x0F'
p268
sS'file'
p269
S'ATmegaBOOT_168_diecimila.hex'
p270
sS'path'
p271
S'atmega'
p272
sS'unlock_bits'
p273
S'0x3F'
p274
ssS'build'
p275
(dp276
S'core'
p277
S'arduino'
p278
sS'mcu'
p279
S'atmega168'
p280
sS'f_cpu'
p281
S'16000000L'
p282
sS'variant'
p283
S'eightanaloginputs'
p284
ssS'name'
p285
S'Arduino Nano w/ ATmega168'
p286
sS'upload'
p287
(dp288
S'protocol'
p289
S'arduino'
p290
sS'maximum_size'
p291
S'14336'
p292
sS'speed'
p293
S'19200'
p294
ssaa(lp295
S'mega2560'
p296
a(dp297
g97
S'/usr/share/arduino/hardware/arduino'
p298
sS'bootloader'
p299
(dp300
S'extended_fuses'
p301
S'0xFD'
p302
sS'high_fuses'
p303
S'0xD8'
p304
sS'low_fuses'
p305
S'0xFF'
p306
sS'lock_bits'
p307
S'0x0F'
p308
sS'file'
p309
S'stk500boot_v2_mega2560.hex'
p310
sS'path'
p311
S'stk500v2'
p312
sS'unlock_bits'
p313
S'0x3F'
p314
ssS'build'
p315
(dp316
S'core'
p317
S'arduino'
p318
sS'mcu'
p319
S'atmega2560'
p320
sS'f_cpu'
p321
S'16000000L'
p322
sS'variant'
p323
S'mega'
p324
ssS'name'
p325
S'Arduino Mega 2560 or Mega ADK'
p326
sS'upload'
p327
(dp328
S'protocol'
p329
S'wiring'
p330
sS'maximum_size'
p331
S'258048'
p332
sS'speed'
p333
S'115200'
p334
ssaa(lp335
S'mega'
p336
a(dp337
g97
S'/usr/share/arduino/hardware/arduino'
p338
sS'bootloader'
p339
(dp340
S'extended_fuses'
p341
S'0xF5'
p342
sS'high_fuses'
p343
S'0xDA'
p344
sS'low_fuses'
p345
S'0xFF'
p346
sS'lock_bits'
p347
S'0x0F'
p348
sS'file'
p349
S'ATmegaBOOT_168_atmega1280.hex'
p350
sS'path'
p351
S'atmega'
p352
sS'unlock_bits'
p353
S'0x3F'
p354
ssS'build'
p355
(dp356
S'core'
p357
S'arduino'
p358
sS'mcu'
p359
S'atmega1280'
p360
sS'f_cpu'
p361
S'16000000L'
p362
sS'variant'
p363
S'mega'
p364
ssS'name'
p365
S'Arduino Mega (ATmega1280)'
p366
sS'upload'
p367
(dp368
S'protocol'
p369
S'arduino'
p370
sS'maximum_size'
p371
S'126976'
p372
sS'speed'
p373
S'57600'
p374
ssaa(lp375
S'leonardo'
p376
a(dp377
g97
S'/usr/share/arduino/hardware/arduino'
p378
sS'bootloader'
p379
(dp380
S'extended_fuses'
p381
S'0xcb'
p382
sS'high_fuses'
p383
S'0xd8'
p384
sS'low_fuses'
p385
S'0xff'
p386
sS'lock_bits'
p387
S'0x2F'
p388
sS'file'
p389
S'Caterina-Leonardo.hex'
p390
sS'path'
p391
S'caterina'
p392
sS'unlock_bits'
p393
S'0x3F'
p394
ssS'build'
p395
(dp396
S'core'
p397
S'arduino'
p398
sS'f_cpu'
p399
S'16000000L'
p400
sS'vid'
p401
S'0x2341'
p402
sS'pid'
p403
S'0x8036'
p404
sS'variant'
p405
S'leonardo'
p406
sS'mcu'
p407
S'atmega32u4'
p408
ssS'name'
p409
S'Arduino Leonardo'
p410
sS'upload'
p411
(dp412
S'protocol'
p413
S'avr109'
p414
sS'maximum_size'
p415
S'28672'
p416
sS'speed'
p417
S'57600'
p418
sS'disable_flushing'
p419
S'true'
p420
ssaa(lp421
S'esplora'
p422
a(dp423
g97
S'/usr/share/arduino/hardware/arduino'
p424
sS'bootloader'
p425
(dp426
S'extended_fuses'
p427
S'0xcb'
p428
sS'high_fuses'
p429
S'0xd8'
p430
sS'low_fuses'
p431
S'0xff'
p432
sS'lock_bits'
p433
S'0x2F'
p434
sS'file'
p435
S'Caterina-Esplora.hex'
p436
sS'path'
p437
S'caterina'
p438
sS'unlock_bits'
p439
S'0x3F'
p440
ssS'build'
p441
(dp442
S'core'
p443
S'arduino'
p444
sS'f_cpu'
p445
S'16000000L'
p446
sS'vid'
p447
S'0x2341'
p448
sS'pid'
p449
S'0x803C'
p450
sS'variant'
p451
S'leonardo'
p452
sS'mcu'
p453
S'atmega32u4'
p454
ssS'name'
p455
S'Arduino Esplora'
p456
sS'upload'
p457
(dp458
S'protocol'
p459
S'avr109'
p460
sS'maximum_size'
p461
S'28672'
p462
sS'speed'
p463
S'57600'
p464
sS'disable_flushing'
p465
S'true'
p466
ssaa(lp467
S'micro'
p468
a(dp469
g97
S'/usr/share/arduino/hardware/arduino'
p470
sS'bootloader'
p471
(dp472
S'extended_fuses'
p473
S'0xcb'
p474
sS'high_fuses'
p475
S'0xd8'
p476
sS'low_fuses'
p477
S'0xff'
p478
sS'lock_bits'
p479
S'0x2F'
p480
sS'file'
p481
S'Caterina-Micro.hex'
p482
sS'path'
p483
S'caterina'
p484
sS'unlock_bits'
p485
S'0x3F'
p486
ssS'build'
p487
(dp488
S'core'
p489
S'arduino'
p490
sS'f_cpu'
p491
S'16000000L'
p492
sS'vid'
p493
S'0x2341'
p494
sS'pid'
p495
S'0x8037'
p496
sS'variant'
p497
S'micro'
p498
sS'mcu'
p499
S'atmega32u4'
p500
ssS'name'
p501
S'Arduino Micro'
p502
sS'upload'
p503
(dp504
S'protocol'
p505
S'avr109'
p506
sS'maximum_size'
p507
S'28672'
p508
sS'speed'
p509
S'57600'
p510
sS'disable_flushing'
p511
S'true'
p512
ssaa(lp513
S'mini328'
p514
a(dp515
g97
S'/usr/share/arduino/hardware/arduino'
p516
sS'bootloader'
p517
(dp518
S'extended_fuses'
p519
S'0x05'
p520
sS'high_fuses'
p521
S'0xd8'
p522
sS'low_fuses'
p523
S'0xff'
p524
sS'lock_bits'
p525
S'0x0F'
p526
sS'file'
p527
S'optiboot_atmega328-Mini.hex'
p528
sS'path'
p529
S'optiboot'
p530
sS'unlock_bits'
p531
S'0x3F'
p532
ssS'build'
p533
(dp534
S'core'
p535
S'arduino'
p536
sS'mcu'
p537
S'atmega328p'
p538
sS'f_cpu'
p539
S'16000000L'
p540
sS'variant'
p541
S'eightanaloginputs'
p542
ssS'name'
p543
S'Arduino Mini w/ ATmega328'
p544
sS'upload'
p545
(dp546
S'protocol'
p547
S'arduino'
p548
sS'maximum_size'
p549
S'28672'
p550
sS'speed'
p551
S'115200'
p552
ssaa(lp553
S'mini'
p554
a(dp555
g97
S'/usr/share/arduino/hardware/arduino'
p556
sS'bootloader'
p557
(dp558
S'extended_fuses'
p559
S'0x00'
p560
sS'high_fuses'
p561
S'0xdd'
p562
sS'low_fuses'
p563
S'0xff'
p564
sS'lock_bits'
p565
S'0x0F'
p566
sS'file'
p567
S'ATmegaBOOT_168_ng.hex'
p568
sS'path'
p569
S'atmega'
p570
sS'unlock_bits'
p571
S'0x3F'
p572
ssS'build'
p573
(dp574
S'core'
p575
S'arduino'
p576
sS'mcu'
p577
S'atmega168'
p578
sS'f_cpu'
p579
S'16000000L'
p580
sS'variant'
p581
S'eightanaloginputs'
p582
ssS'name'
p583
S'Arduino Mini w/ ATmega168'
p584
sS'upload'
p585
(dp586
S'protocol'
p587
S'arduino'
p588
sS'maximum_size'
p589
S'14336'
p590
sS'speed'
p591
S'19200'
p592
ssaa(lp593
S'ethernet'
p594
a(dp595
g97
S'/usr/share/arduino/hardware/arduino'
p596
sS'bootloader'
p597
(dp598
S'extended_fuses'
p599
S'0x05'
p600
sS'high_fuses'
p601
S'0xde'
p602
sS'low_fuses'
p603
S'0xff'
p604
sS'lock_bits'
p605
S'0x0F'
p606
sS'file'
p607
S'optiboot_atmega328.hex'
p608
sS'path'
p609
S'optiboot'
p610
sS'unlock_bits'
p611
S'0x3F'
p612
ssS'build'
p613
(dp614
S'variant'
p615
S'standard'
p616
sS'mcu'
p617
S'atmega328p'
p618
sS'f_cpu'
p619
S'16000000L'
p620
sS'core'
p621
S'arduino'
p622
ssS'name'
p623
S'Arduino Ethernet'
p624
sS'upload'
p625
(dp626
S'protocol'
p627
S'arduino'
p628
sS'maximum_size'
p629
S'32256'
p630
sS'speed'
p631
S'115200'
p632
ssaa(lp633
S'fio'
p634
a(dp635
g97
S'/usr/share/arduino/hardware/arduino'
p636
sS'bootloader'
p637
(dp638
S'extended_fuses'
p639
S'0x05'
p640
sS'high_fuses'
p641
S'0xDA'
p642
sS'low_fuses'
p643
S'0xFF'
p644
sS'lock_bits'
p645
S'0x0F'
p646
sS'file'
p647
S'ATmegaBOOT_168_atmega328_pro_8MHz.hex'
p648
sS'path'
p649
S'arduino:atmega'
p650
sS'unlock_bits'
p651
S'0x3F'
p652
ssS'build'
p653
(dp654
S'core'
p655
S'arduino'
p656
sS'mcu'
p657
S'atmega328p'
p658
sS'f_cpu'
p659
S'8000000L'
p660
sS'variant'
p661
S'eightanaloginputs'
p662
ssS'name'
p663
S'Arduino Fio'
p664
sS'upload'
p665
(dp666
S'protocol'
p667
S'arduino'
p668
sS'maximum_size'
p669
S'30720'
p670
sS'speed'
p671
S'57600'
p672
ssaa(lp673
S'bt328'
p674
a(dp675
g97
S'/usr/share/arduino/hardware/arduino'
p676
sS'bootloader'
p677
(dp678
S'extended_fuses'
p679
S'0x05'
p680
sS'high_fuses'
p681
S'0xd8'
p682
sS'low_fuses'
p683
S'0xff'
p684
sS'lock_bits'
p685
S'0x0F'
p686
sS'file'
p687
S'ATmegaBOOT_168_atmega328_bt.hex'
p688
sS'path'
p689
S'bt'
p690
sS'unlock_bits'
p691
S'0x3F'
p692
ssS'build'
p693
(dp694
S'core'
p695
S'arduino'
p696
sS'mcu'
p697
S'atmega328p'
p698
sS'f_cpu'
p699
S'16000000L'
p700
sS'variant'
p701
S'eightanaloginputs'
p702
ssS'name'
p703
S'Arduino BT w/ ATmega328'
p704
sS'upload'
p705
(dp706
S'protocol'
p707
S'arduino'
p708
sS'maximum_size'
p709
S'28672'
p710
sS'speed'
p711
S'19200'
p712
sS'disable_flushing'
p713
S'true'
p714
ssaa(lp715
S'bt'
p716
a(dp717
g97
S'/usr/share/arduino/hardware/arduino'
p718
sS'bootloader'
p719
(dp720
S'extended_fuses'
p721
S'0x00'
p722
sS'high_fuses'
p723
S'0xdd'
p724
sS'low_fuses'
p725
S'0xff'
p726
sS'lock_bits'
p727
S'0x0F'
p728
sS'file'
p729
S'ATmegaBOOT_168.hex'
p730
sS'path'
p731
S'bt'
p732
sS'unlock_bits'
p733
S'0x3F'
p734
ssS'build'
p735
(dp736
S'core'
p737
S'arduino'
p738
sS'mcu'
p739
S'atmega168'
p740
sS'f_cpu'
p741
S'16000000L'
p742
sS'variant'
p743
S'eightanaloginputs'
p744
ssS'name'
p745
S'Arduino BT w/ ATmega168'
p746
sS'upload'
p747
(dp748
S'protocol'
p749
S'arduino'
p750
sS'maximum_size'
p751
S'14336'
p752
sS'speed'
p753
S'19200'
p754
sS'disable_flushing'
p755
S'true'
p756
ssaa(lp757
S'LilyPadUSB'
p758
a(dp759
g97
S'/usr/share/arduino/hardware/arduino'
p760
sS'bootloader'
p761
(dp762
S'extended_fuses'
p763
S'0xce'
p764
sS'high_fuses'
p765
S'0xd8'
p766
sS'low_fuses'
p767
S'0xff'
p768
sS'lock_bits'
p769
S'0x2F'
p770
sS'file'
p771
S'Caterina-LilyPadUSB.hex'
p772
sS'path'
p773
S'caterina-LilyPadUSB'
p774
sS'unlock_bits'
p775
S'0x3F'
p776
ssS'build'
p777
(dp778
S'core'
p779
S'arduino'
p780
sS'f_cpu'
p781
S'8000000L'
p782
sS'vid'
p783
S'0x1B4F'
p784
sS'pid'
p785
S'0x9208'
p786
sS'variant'
p787
S'leonardo'
p788
sS'mcu'
p789
S'atmega32u4'
p790
ssS'name'
p791
S'LilyPad Arduino USB'
p792
sS'upload'
p793
(dp794
S'protocol'
p795
S'avr109'
p796
sS'maximum_size'
p797
S'28672'
p798
sS'speed'
p799
S'57600'
p800
sS'disable_flushing'
p801
S'true'
p802
ssaa(lp803
S'lilypad328'
p804
a(dp805
g97
S'/usr/share/arduino/hardware/arduino'
p806
sS'bootloader'
p807
(dp808
S'extended_fuses'
p809
S'0x05'
p810
sS'high_fuses'
p811
S'0xDA'
p812
sS'low_fuses'
p813
S'0xFF'
p814
sS'lock_bits'
p815
S'0x0F'
p816
sS'file'
p817
S'ATmegaBOOT_168_atmega328_pro_8MHz.hex'
p818
sS'path'
p819
S'atmega'
p820
sS'unlock_bits'
p821
S'0x3F'
p822
ssS'build'
p823
(dp824
S'core'
p825
S'arduino'
p826
sS'mcu'
p827
S'atmega328p'
p828
sS'f_cpu'
p829
S'8000000L'
p830
sS'variant'
p831
S'standard'
p832
ssS'name'
p833
S'LilyPad Arduino w/ ATmega328'
p834
sS'upload'
p835
(dp836
S'protocol'
p837
S'arduino'
p838
sS'maximum_size'
p839
S'30720'
p840
sS'speed'
p841
S'57600'
p842
ssaa(lp843
S'lilypad'
p844
a(dp845
g97
S'/usr/share/arduino/hardware/arduino'
p846
sS'bootloader'
p847
(dp848
S'extended_fuses'
p849
S'0x00'
p850
sS'high_fuses'
p851
S'0xdd'
p852
sS'low_fuses'
p853
S'0xe2'
p854
sS'lock_bits'
p855
S'0x0F'
p856
sS'file'
p857
S'LilyPadBOOT_168.hex'
p858
sS'path'
p859
S'lilypad'
p860
sS'unlock_bits'
p861
S'0x3F'
p862
ssS'build'
p863
(dp864
S'core'
p865
S'arduino'
p866
sS'mcu'
p867
S'atmega168'
p868
sS'f_cpu'
p869
S'8000000L'
p870
sS'variant'
p871
S'standard'
p872
ssS'name'
p873
S'LilyPad Arduino w/ ATmega168'
p874
sS'upload'
p875
(dp876
S'protocol'
p877
S'arduino'
p878
sS'maximum_size'
p879
S'14336'
p880
sS'speed'
p881
S'19200'
p882
ssaa(lp883
S'pro5v328'
p884
a(dp885
g97
S'/usr/share/arduino/hardware/arduino'
p886
sS'bootloader'
p887
(dp888
S'extended_fuses'
p889
S'0x05'
p890
sS'high_fuses'
p891
S'0xDA'
p892
sS'low_fuses'
p893
S'0xFF'
p894
sS'lock_bits'
p895
S'0x0F'
p896
sS'file'
p897
S'ATmegaBOOT_168_atmega328.hex'
p898
sS'path'
p899
S'atmega'
p900
sS'unlock_bits'
p901
S'0x3F'
p902
ssS'build'
p903
(dp904
S'core'
p905
S'arduino'
p906
sS'mcu'
p907
S'atmega328p'
p908
sS'f_cpu'
p909
S'16000000L'
p910
sS'variant'
p911
S'standard'
p912
ssS'name'
p913
S'Arduino Pro or Pro Mini (5V, 16 MHz) w/ ATmega328'
p914
sS'upload'
p915
(dp916
S'protocol'
p917
S'arduino'
p918
sS'maximum_size'
p919
S'30720'
p920
sS'speed'
p921
S'57600'
p922
ssaa(lp923
S'pro5v'
p924
a(dp925
g97
S'/usr/share/arduino/hardware/arduino'
p926
sS'bootloader'
p927
(dp928
S'extended_fuses'
p929
S'0x00'
p930
sS'high_fuses'
p931
S'0xdd'
p932
sS'low_fuses'
p933
S'0xff'
p934
sS'lock_bits'
p935
S'0x0F'
p936
sS'file'
p937
S'ATmegaBOOT_168_diecimila.hex'
p938
sS'path'
p939
S'atmega'
p940
sS'unlock_bits'
p941
S'0x3F'
p942
ssS'build'
p943
(dp944
S'core'
p945
S'arduino'
p946
sS'mcu'
p947
S'atmega168'
p948
sS'f_cpu'
p949
S'16000000L'
p950
sS'variant'
p951
S'standard'
p952
ssS'name'
p953
S'Arduino Pro or Pro Mini (5V, 16 MHz) w/ ATmega168'
p954
sS'upload'
p955
(dp956
S'protocol'
p957
S'arduino'
p958
sS'maximum_size'
p959
S'14336'
p960
sS'speed'
p961
S'19200'
p962
ssaa(lp963
S'pro328'
p964
a(dp965
g97
S'/usr/share/arduino/hardware/arduino'
p966
sS'bootloader'
p967
(dp968
S'extended_fuses'
p969
S'0x05'
p970
sS'high_fuses'
p971
S'0xDA'
p972
sS'low_fuses'
p973
S'0xFF'
p974
sS'lock_bits'
p975
S'0x0F'
p976
sS'file'
p977
S'ATmegaBOOT_168_atmega328_pro_8MHz.hex'
p978
sS'path'
p979
S'atmega'
p980
sS'unlock_bits'
p981
S'0x3F'
p982
ssS'build'
p983
(dp984
S'core'
p985
S'arduino'
p986
sS'mcu'
p987
S'atmega328p'
p988
sS'f_cpu'
p989
S'8000000L'
p990
sS'variant'
p991
S'standard'
p992
ssS'name'
p993
S'Arduino Pro or Pro Mini (3.3V, 8 MHz) w/ ATmega328'
p994
sS'upload'
p995
(dp996
S'protocol'
p997
S'arduino'
p998
sS'maximum_size'
p999
S'30720'
p1000
sS'speed'
p1001
S'57600'
p1002
ssaa(lp1003
S'pro'
p1004
a(dp1005
g97
S'/usr/share/arduino/hardware/arduino'
p1006
sS'bootloader'
p1007
(dp1008
S'extended_fuses'
p1009
S'0x00'
p1010
sS'high_fuses'
p1011
S'0xdd'
p1012
sS'low_fuses'
p1013
S'0xc6'
p1014
sS'lock_bits'
p1015
S'0x0F'
p1016
sS'file'
p1017
S'ATmegaBOOT_168_pro_8MHz.hex'
p1018
sS'path'
p1019
S'atmega'
p1020
sS'unlock_bits'
p1021
S'0x3F'
p1022
ssS'build'
p1023
(dp1024
S'core'
p1025
S'arduino'
p1026
sS'mcu'
p1027
S'atmega168'
p1028
sS'f_cpu'
p1029
S'8000000L'
p1030
sS'variant'
p1031
S'standard'
p1032
ssS'name'
p1033
S'Arduino Pro or Pro Mini (3.3V, 8 MHz) w/ ATmega168'
p1034
sS'upload'
p1035
(dp1036
S'protocol'
p1037
S'arduino'
p1038
sS'maximum_size'
p1039
S'14336'
p1040
sS'speed'
p1041
S'19200'
p1042
ssaa(lp1043
S'atmega168'
p1044
a(dp1045
g97
S'/usr/share/arduino/hardware/arduino'
p1046
sS'bootloader'
p1047
(dp1048
S'extended_fuses'
p1049
S'0x00'
p1050
sS'high_fuses'
p1051
S'0xdd'
p1052
sS'low_fuses'
p1053
S'0xff'
p1054
sS'lock_bits'
p1055
S'0x0F'
p1056
sS'file'
p1057
S'ATmegaBOOT_168_ng.hex'
p1058
sS'path'
p1059
S'atmega'
p1060
sS'unlock_bits'
p1061
S'0x3F'
p1062
ssS'build'
p1063
(dp1064
S'core'
p1065
S'arduino'
p1066
sS'mcu'
p1067
S'atmega168'
p1068
sS'f_cpu'
p1069
S'16000000L'
p1070
sS'variant'
p1071
S'standard'
p1072
ssS'name'
p1073
S'Arduino NG or older w/ ATmega168'
p1074
sS'upload'
p1075
(dp1076
S'protocol'
p1077
S'arduino'
p1078
sS'maximum_size'
p1079
S'14336'
p1080
sS'speed'
p1081
S'19200'
p1082
ssaa(lp1083
S'atmega8'
p1084
a(dp1085
g97
S'/usr/share/arduino/hardware/arduino'
p1086
sS'bootloader'
p1087
(dp1088
S'high_fuses'
p1089
S'0xca'
p1090
sS'low_fuses'
p1091
S'0xdf'
p1092
sS'lock_bits'
p1093
S'0x0F'
p1094
sS'file'
p1095
S'ATmegaBOOT-prod-firmware-2009-11-07.hex'
p1096
sS'path'
p1097
S'atmega8'
p1098
sS'unlock_bits'
p1099
S'0x3F'
p1100
ssS'build'
p1101
(dp1102
S'core'
p1103
S'arduino'
p1104
sS'mcu'
p1105
S'atmega8'
p1106
sS'f_cpu'
p1107
S'16000000L'
p1108
sS'variant'
p1109
S'standard'
p1110
ssS'name'
p1111
S'Arduino NG or older w/ ATmega8'
p1112
sS'upload'
p1113
(dp1114
S'protocol'
p1115
S'arduino'
p1116
sS'maximum_size'
p1117
S'7168'
p1118
sS'speed'
p1119
S'19200'
p1120
ssaa(lp1121
S'robotControl'
p1122
a(dp1123
g97
S'/usr/share/arduino/hardware/arduino'
p1124
sS'bootloader'
p1125
(dp1126
S'extended_fuses'
p1127
S'0xcb'
p1128
sS'high_fuses'
p1129
S'0xd8'
p1130
sS'low_fuses'
p1131
S'0xff'
p1132
sS'lock_bits'
p1133
S'0x2F'
p1134
sS'file'
p1135
S'Caterina-Robot-Control.hex'
p1136
sS'path'
p1137
S'caterina-Arduino_Robot'
p1138
sS'unlock_bits'
p1139
S'0x3F'
p1140
ssS'build'
p1141
(dp1142
S'core'
p1143
S'robot'
p1144
sS'f_cpu'
p1145
S'16000000L'
p1146
sS'vid'
p1147
S'0x2341'
p1148
sS'pid'
p1149
S'0x8038'
p1150
sS'variant'
p1151
S'robot_control'
p1152
sS'mcu'
p1153
S'atmega32u4'
p1154
ssS'name'
p1155
S'Arduino Robot Control'
p1156
sS'upload'
p1157
(dp1158
S'protocol'
p1159
S'avr109'
p1160
sS'maximum_size'
p1161
S'28672'
p1162
sS'speed'
p1163
S'57600'
p1164
sS'disable_flushing'
p1165
S'true'
p1166
ssaa(lp1167
S'robotMotor'
p1168
a(dp1169
g97
S'/usr/share/arduino/hardware/arduino'
p1170
sS'bootloader'
p1171
(dp1172
S'extended_fuses'
p1173
S'0xcb'
p1174
sS'high_fuses'
p1175
S'0xd8'
p1176
sS'low_fuses'
p1177
S'0xff'
p1178
sS'lock_bits'
p1179
S'0x2F'
p1180
sS'file'
p1181
S'Caterina-Robot-Motor.hex'
p1182
sS'path'
p1183
S'caterina-Arduino_Robot'
p1184
sS'unlock_bits'
p1185
S'0x3F'
p1186
ssS'build'
p1187
(dp1188
S'core'
p1189
S'robot'
p1190
sS'f_cpu'
p1191
S'16000000L'
p1192
sS'vid'
p1193
S'0x2341'
p1194
sS'pid'
p1195
S'0x8039'
p1196
sS'variant'
p1197
S'robot_motor'
p1198
sS'mcu'
p1199
S'atmega32u4'
p1200
ssS'name'
p1201
S'Arduino Robot Motor'
p1202
sS'upload'
p1203
(dp1204
S'protocol'
p1205
S'avr109'
p1206
sS'maximum_size'
p1207
S'28672'
p1208
sS'speed'
p1209
S'57600'
p1210
sS'disable_flushing'
p1211
S'true'
p1212
ssaatp1213
Rp1214
(dp1215
S'default'
p1216
S'uno'
p1217
sbtp1218
a(S'ldflags'
p1219
g2
(g3
g4
(lp1220
g6
aS'-Wl,-Os'
p1221
aS'-Wl,--gc-sections'
p1222
atp1223
Rp1224
tp1225
a.