(lp0
(S'version.txt'
p1
S'/usr/share/arduino/lib/version.txt'
p2
tp3
a(S'build_dir'
p4
S'.build/uno'
p5
tp6
a(S'board_models'
p7
cino.environment
BoardModels
p8
((lp9
(lp10
S'uno'
p11
a(dp12
S'build'
p13
(dp14
S'core'
p15
S'arduino'
p16
sS'mcu'
p17
S'atmega328p'
p18
sS'f_cpu'
p19
S'16000000L'
p20
sS'variant'
p21
S'standard'
p22
ssS'bootloader'
p23
(dp24
S'extended_fuses'
p25
S'0x05'
p26
sS'high_fuses'
p27
S'0xde'
p28
sS'low_fuses'
p29
S'0xff'
p30
sS'lock_bits'
p31
S'0x0F'
p32
sS'file'
p33
S'optiboot_atmega328.hex'
p34
sS'path'
p35
S'optiboot'
p36
sS'unlock_bits'
p37
S'0x3F'
p38
ssS'name'
p39
S'Arduino Uno'
p40
sS'upload'
p41
(dp42
S'speed'
p43
S'115200'
p44
sS'maximum_size'
p45
S'32256'
p46
sS'protocol'
p47
S'arduino'
p48
ssaa(lp49
S'atmega328'
p50
a(dp51
S'build'
p52
(dp53
S'core'
p54
S'arduino'
p55
sS'mcu'
p56
S'atmega328p'
p57
sS'f_cpu'
p58
S'16000000L'
p59
sS'variant'
p60
S'standard'
p61
ssS'bootloader'
p62
(dp63
S'extended_fuses'
p64
S'0x05'
p65
sS'high_fuses'
p66
S'0xDA'
p67
sS'low_fuses'
p68
S'0xFF'
p69
sS'lock_bits'
p70
S'0x0F'
p71
sS'file'
p72
S'ATmegaBOOT_168_atmega328.hex'
p73
sS'path'
p74
S'atmega'
p75
sS'unlock_bits'
p76
S'0x3F'
p77
ssS'name'
p78
S'Arduino Duemilanove w/ ATmega328'
p79
sS'upload'
p80
(dp81
S'speed'
p82
S'57600'
p83
sS'maximum_size'
p84
S'30720'
p85
sS'protocol'
p86
S'arduino'
p87
ssaa(lp88
S'diecimila'
p89
a(dp90
S'build'
p91
(dp92
S'core'
p93
S'arduino'
p94
sS'mcu'
p95
S'atmega168'
p96
sS'f_cpu'
p97
S'16000000L'
p98
sS'variant'
p99
S'standard'
p100
ssS'bootloader'
p101
(dp102
S'extended_fuses'
p103
S'0x00'
p104
sS'high_fuses'
p105
S'0xdd'
p106
sS'low_fuses'
p107
S'0xff'
p108
sS'lock_bits'
p109
S'0x0F'
p110
sS'file'
p111
S'ATmegaBOOT_168_diecimila.hex'
p112
sS'path'
p113
S'atmega'
p114
sS'unlock_bits'
p115
S'0x3F'
p116
ssS'name'
p117
S'Arduino Diecimila or Duemilanove w/ ATmega168'
p118
sS'upload'
p119
(dp120
S'speed'
p121
S'19200'
p122
sS'maximum_size'
p123
S'14336'
p124
sS'protocol'
p125
S'arduino'
p126
ssaa(lp127
S'nano328'
p128
a(dp129
S'build'
p130
(dp131
S'core'
p132
S'arduino'
p133
sS'mcu'
p134
S'atmega328p'
p135
sS'f_cpu'
p136
S'16000000L'
p137
sS'variant'
p138
S'eightanaloginputs'
p139
ssS'bootloader'
p140
(dp141
S'extended_fuses'
p142
S'0x05'
p143
sS'high_fuses'
p144
S'0xDA'
p145
sS'low_fuses'
p146
S'0xFF'
p147
sS'lock_bits'
p148
S'0x0F'
p149
sS'file'
p150
S'ATmegaBOOT_168_atmega328.hex'
p151
sS'path'
p152
S'atmega'
p153
sS'unlock_bits'
p154
S'0x3F'
p155
ssS'name'
p156
S'Arduino Nano w/ ATmega328'
p157
sS'upload'
p158
(dp159
S'speed'
p160
S'57600'
p161
sS'maximum_size'
p162
S'30720'
p163
sS'protocol'
p164
S'arduino'
p165
ssaa(lp166
S'nano'
p167
a(dp168
S'build'
p169
(dp170
S'core'
p171
S'arduino'
p172
sS'mcu'
p173
S'atmega168'
p174
sS'f_cpu'
p175
S'16000000L'
p176
sS'variant'
p177
S'eightanaloginputs'
p178
ssS'bootloader'
p179
(dp180
S'extended_fuses'
p181
S'0x00'
p182
sS'high_fuses'
p183
S'0xdd'
p184
sS'low_fuses'
p185
S'0xff'
p186
sS'lock_bits'
p187
S'0x0F'
p188
sS'file'
p189
S'ATmegaBOOT_168_diecimila.hex'
p190
sS'path'
p191
S'atmega'
p192
sS'unlock_bits'
p193
S'0x3F'
p194
ssS'name'
p195
S'Arduino Nano w/ ATmega168'
p196
sS'upload'
p197
(dp198
S'speed'
p199
S'19200'
p200
sS'maximum_size'
p201
S'14336'
p202
sS'protocol'
p203
S'arduino'
p204
ssaa(lp205
S'mega2560'
p206
a(dp207
S'build'
p208
(dp209
S'core'
p210
S'arduino'
p211
sS'mcu'
p212
S'atmega2560'
p213
sS'f_cpu'
p214
S'16000000L'
p215
sS'variant'
p216
S'mega'
p217
ssS'bootloader'
p218
(dp219
S'extended_fuses'
p220
S'0xFD'
p221
sS'high_fuses'
p222
S'0xD8'
p223
sS'low_fuses'
p224
S'0xFF'
p225
sS'lock_bits'
p226
S'0x0F'
p227
sS'file'
p228
S'stk500boot_v2_mega2560.hex'
p229
sS'path'
p230
S'stk500v2'
p231
sS'unlock_bits'
p232
S'0x3F'
p233
ssS'name'
p234
S'Arduino Mega 2560 or Mega ADK'
p235
sS'upload'
p236
(dp237
S'speed'
p238
S'115200'
p239
sS'maximum_size'
p240
S'258048'
p241
sS'protocol'
p242
S'wiring'
p243
ssaa(lp244
S'mega'
p245
a(dp246
S'build'
p247
(dp248
S'core'
p249
S'arduino'
p250
sS'mcu'
p251
S'atmega1280'
p252
sS'f_cpu'
p253
S'16000000L'
p254
sS'variant'
p255
S'mega'
p256
ssS'bootloader'
p257
(dp258
S'extended_fuses'
p259
S'0xF5'
p260
sS'high_fuses'
p261
S'0xDA'
p262
sS'low_fuses'
p263
S'0xFF'
p264
sS'lock_bits'
p265
S'0x0F'
p266
sS'file'
p267
S'ATmegaBOOT_168_atmega1280.hex'
p268
sS'path'
p269
S'atmega'
p270
sS'unlock_bits'
p271
S'0x3F'
p272
ssS'name'
p273
S'Arduino Mega (ATmega1280)'
p274
sS'upload'
p275
(dp276
S'speed'
p277
S'57600'
p278
sS'maximum_size'
p279
S'126976'
p280
sS'protocol'
p281
S'arduino'
p282
ssaa(lp283
S'leonardo'
p284
a(dp285
S'build'
p286
(dp287
S'core'
p288
S'arduino'
p289
sS'f_cpu'
p290
S'16000000L'
p291
sS'vid'
p292
S'0x2341'
p293
sS'pid'
p294
S'0x8036'
p295
sS'variant'
p296
S'leonardo'
p297
sS'mcu'
p298
S'atmega32u4'
p299
ssS'bootloader'
p300
(dp301
S'extended_fuses'
p302
S'0xcb'
p303
sS'high_fuses'
p304
S'0xd8'
p305
sS'low_fuses'
p306
S'0xff'
p307
sS'lock_bits'
p308
S'0x2F'
p309
sS'file'
p310
S'Caterina-Leonardo.hex'
p311
sS'path'
p312
S'caterina'
p313
sS'unlock_bits'
p314
S'0x3F'
p315
ssS'name'
p316
S'Arduino Leonardo'
p317
sS'upload'
p318
(dp319
S'speed'
p320
S'57600'
p321
sS'maximum_size'
p322
S'28672'
p323
sS'protocol'
p324
S'avr109'
p325
sS'disable_flushing'
p326
S'true'
p327
ssaa(lp328
S'esplora'
p329
a(dp330
S'build'
p331
(dp332
S'core'
p333
S'arduino'
p334
sS'f_cpu'
p335
S'16000000L'
p336
sS'vid'
p337
S'0x2341'
p338
sS'pid'
p339
S'0x803C'
p340
sS'variant'
p341
S'leonardo'
p342
sS'mcu'
p343
S'atmega32u4'
p344
ssS'bootloader'
p345
(dp346
S'extended_fuses'
p347
S'0xcb'
p348
sS'high_fuses'
p349
S'0xd8'
p350
sS'low_fuses'
p351
S'0xff'
p352
sS'lock_bits'
p353
S'0x2F'
p354
sS'file'
p355
S'Caterina-Esplora.hex'
p356
sS'path'
p357
S'caterina'
p358
sS'unlock_bits'
p359
S'0x3F'
p360
ssS'name'
p361
S'Arduino Esplora'
p362
sS'upload'
p363
(dp364
S'speed'
p365
S'57600'
p366
sS'maximum_size'
p367
S'28672'
p368
sS'protocol'
p369
S'avr109'
p370
sS'disable_flushing'
p371
S'true'
p372
ssaa(lp373
S'micro'
p374
a(dp375
S'build'
p376
(dp377
S'core'
p378
S'arduino'
p379
sS'f_cpu'
p380
S'16000000L'
p381
sS'vid'
p382
S'0x2341'
p383
sS'pid'
p384
S'0x8037'
p385
sS'variant'
p386
S'micro'
p387
sS'mcu'
p388
S'atmega32u4'
p389
ssS'bootloader'
p390
(dp391
S'extended_fuses'
p392
S'0xcb'
p393
sS'high_fuses'
p394
S'0xd8'
p395
sS'low_fuses'
p396
S'0xff'
p397
sS'lock_bits'
p398
S'0x2F'
p399
sS'file'
p400
S'Caterina-Micro.hex'
p401
sS'path'
p402
S'caterina'
p403
sS'unlock_bits'
p404
S'0x3F'
p405
ssS'name'
p406
S'Arduino Micro'
p407
sS'upload'
p408
(dp409
S'speed'
p410
S'57600'
p411
sS'maximum_size'
p412
S'28672'
p413
sS'protocol'
p414
S'avr109'
p415
sS'disable_flushing'
p416
S'true'
p417
ssaa(lp418
S'mini328'
p419
a(dp420
S'build'
p421
(dp422
S'core'
p423
S'arduino'
p424
sS'mcu'
p425
S'atmega328p'
p426
sS'f_cpu'
p427
S'16000000L'
p428
sS'variant'
p429
S'eightanaloginputs'
p430
ssS'bootloader'
p431
(dp432
S'extended_fuses'
p433
S'0x05'
p434
sS'high_fuses'
p435
S'0xd8'
p436
sS'low_fuses'
p437
S'0xff'
p438
sS'lock_bits'
p439
S'0x0F'
p440
sS'file'
p441
S'optiboot_atmega328-Mini.hex'
p442
sS'path'
p443
S'optiboot'
p444
sS'unlock_bits'
p445
S'0x3F'
p446
ssS'name'
p447
S'Arduino Mini w/ ATmega328'
p448
sS'upload'
p449
(dp450
S'speed'
p451
S'115200'
p452
sS'maximum_size'
p453
S'28672'
p454
sS'protocol'
p455
S'arduino'
p456
ssaa(lp457
S'mini'
p458
a(dp459
S'build'
p460
(dp461
S'core'
p462
S'arduino'
p463
sS'mcu'
p464
S'atmega168'
p465
sS'f_cpu'
p466
S'16000000L'
p467
sS'variant'
p468
S'eightanaloginputs'
p469
ssS'bootloader'
p470
(dp471
S'extended_fuses'
p472
S'0x00'
p473
sS'high_fuses'
p474
S'0xdd'
p475
sS'low_fuses'
p476
S'0xff'
p477
sS'lock_bits'
p478
S'0x0F'
p479
sS'file'
p480
S'ATmegaBOOT_168_ng.hex'
p481
sS'path'
p482
S'atmega'
p483
sS'unlock_bits'
p484
S'0x3F'
p485
ssS'name'
p486
S'Arduino Mini w/ ATmega168'
p487
sS'upload'
p488
(dp489
S'speed'
p490
S'19200'
p491
sS'maximum_size'
p492
S'14336'
p493
sS'protocol'
p494
S'arduino'
p495
ssaa(lp496
S'ethernet'
p497
a(dp498
S'build'
p499
(dp500
S'f_cpu'
p501
S'16000000L'
p502
sS'mcu'
p503
S'atmega328p'
p504
sS'variant'
p505
S'standard'
p506
sS'core'
p507
S'arduino'
p508
ssS'bootloader'
p509
(dp510
S'extended_fuses'
p511
S'0x05'
p512
sS'high_fuses'
p513
S'0xde'
p514
sS'low_fuses'
p515
S'0xff'
p516
sS'lock_bits'
p517
S'0x0F'
p518
sS'file'
p519
S'optiboot_atmega328.hex'
p520
sS'path'
p521
S'optiboot'
p522
sS'unlock_bits'
p523
S'0x3F'
p524
ssS'name'
p525
S'Arduino Ethernet'
p526
sS'upload'
p527
(dp528
S'speed'
p529
S'115200'
p530
sS'maximum_size'
p531
S'32256'
p532
sS'protocol'
p533
S'arduino'
p534
ssaa(lp535
S'fio'
p536
a(dp537
S'build'
p538
(dp539
S'core'
p540
S'arduino'
p541
sS'mcu'
p542
S'atmega328p'
p543
sS'f_cpu'
p544
S'8000000L'
p545
sS'variant'
p546
S'eightanaloginputs'
p547
ssS'bootloader'
p548
(dp549
S'extended_fuses'
p550
S'0x05'
p551
sS'high_fuses'
p552
S'0xDA'
p553
sS'low_fuses'
p554
S'0xFF'
p555
sS'lock_bits'
p556
S'0x0F'
p557
sS'file'
p558
S'ATmegaBOOT_168_atmega328_pro_8MHz.hex'
p559
sS'path'
p560
S'arduino:atmega'
p561
sS'unlock_bits'
p562
S'0x3F'
p563
ssS'name'
p564
S'Arduino Fio'
p565
sS'upload'
p566
(dp567
S'speed'
p568
S'57600'
p569
sS'maximum_size'
p570
S'30720'
p571
sS'protocol'
p572
S'arduino'
p573
ssaa(lp574
S'bt328'
p575
a(dp576
S'build'
p577
(dp578
S'core'
p579
S'arduino'
p580
sS'mcu'
p581
S'atmega328p'
p582
sS'f_cpu'
p583
S'16000000L'
p584
sS'variant'
p585
S'eightanaloginputs'
p586
ssS'bootloader'
p587
(dp588
S'extended_fuses'
p589
S'0x05'
p590
sS'high_fuses'
p591
S'0xd8'
p592
sS'low_fuses'
p593
S'0xff'
p594
sS'lock_bits'
p595
S'0x0F'
p596
sS'file'
p597
S'ATmegaBOOT_168_atmega328_bt.hex'
p598
sS'path'
p599
S'bt'
p600
sS'unlock_bits'
p601
S'0x3F'
p602
ssS'name'
p603
S'Arduino BT w/ ATmega328'
p604
sS'upload'
p605
(dp606
S'speed'
p607
S'19200'
p608
sS'maximum_size'
p609
S'28672'
p610
sS'protocol'
p611
S'arduino'
p612
sS'disable_flushing'
p613
S'true'
p614
ssaa(lp615
S'bt'
p616
a(dp617
S'build'
p618
(dp619
S'core'
p620
S'arduino'
p621
sS'mcu'
p622
S'atmega168'
p623
sS'f_cpu'
p624
S'16000000L'
p625
sS'variant'
p626
S'eightanaloginputs'
p627
ssS'bootloader'
p628
(dp629
S'extended_fuses'
p630
S'0x00'
p631
sS'high_fuses'
p632
S'0xdd'
p633
sS'low_fuses'
p634
S'0xff'
p635
sS'lock_bits'
p636
S'0x0F'
p637
sS'file'
p638
S'ATmegaBOOT_168.hex'
p639
sS'path'
p640
S'bt'
p641
sS'unlock_bits'
p642
S'0x3F'
p643
ssS'name'
p644
S'Arduino BT w/ ATmega168'
p645
sS'upload'
p646
(dp647
S'speed'
p648
S'19200'
p649
sS'maximum_size'
p650
S'14336'
p651
sS'protocol'
p652
S'arduino'
p653
sS'disable_flushing'
p654
S'true'
p655
ssaa(lp656
S'LilyPadUSB'
p657
a(dp658
S'build'
p659
(dp660
S'core'
p661
S'arduino'
p662
sS'f_cpu'
p663
S'8000000L'
p664
sS'vid'
p665
S'0x1B4F'
p666
sS'pid'
p667
S'0x9208'
p668
sS'variant'
p669
S'leonardo'
p670
sS'mcu'
p671
S'atmega32u4'
p672
ssS'bootloader'
p673
(dp674
S'extended_fuses'
p675
S'0xce'
p676
sS'high_fuses'
p677
S'0xd8'
p678
sS'low_fuses'
p679
S'0xff'
p680
sS'lock_bits'
p681
S'0x2F'
p682
sS'file'
p683
S'Caterina-LilyPadUSB.hex'
p684
sS'path'
p685
S'caterina-LilyPadUSB'
p686
sS'unlock_bits'
p687
S'0x3F'
p688
ssS'name'
p689
S'LilyPad Arduino USB'
p690
sS'upload'
p691
(dp692
S'speed'
p693
S'57600'
p694
sS'maximum_size'
p695
S'28672'
p696
sS'protocol'
p697
S'avr109'
p698
sS'disable_flushing'
p699
S'true'
p700
ssaa(lp701
S'lilypad328'
p702
a(dp703
S'build'
p704
(dp705
S'core'
p706
S'arduino'
p707
sS'mcu'
p708
S'atmega328p'
p709
sS'f_cpu'
p710
S'8000000L'
p711
sS'variant'
p712
S'standard'
p713
ssS'bootloader'
p714
(dp715
S'extended_fuses'
p716
S'0x05'
p717
sS'high_fuses'
p718
S'0xDA'
p719
sS'low_fuses'
p720
S'0xFF'
p721
sS'lock_bits'
p722
S'0x0F'
p723
sS'file'
p724
S'ATmegaBOOT_168_atmega328_pro_8MHz.hex'
p725
sS'path'
p726
S'atmega'
p727
sS'unlock_bits'
p728
S'0x3F'
p729
ssS'name'
p730
S'LilyPad Arduino w/ ATmega328'
p731
sS'upload'
p732
(dp733
S'speed'
p734
S'57600'
p735
sS'maximum_size'
p736
S'30720'
p737
sS'protocol'
p738
S'arduino'
p739
ssaa(lp740
S'lilypad'
p741
a(dp742
S'build'
p743
(dp744
S'core'
p745
S'arduino'
p746
sS'mcu'
p747
S'atmega168'
p748
sS'f_cpu'
p749
S'8000000L'
p750
sS'variant'
p751
S'standard'
p752
ssS'bootloader'
p753
(dp754
S'extended_fuses'
p755
S'0x00'
p756
sS'high_fuses'
p757
S'0xdd'
p758
sS'low_fuses'
p759
S'0xe2'
p760
sS'lock_bits'
p761
S'0x0F'
p762
sS'file'
p763
S'LilyPadBOOT_168.hex'
p764
sS'path'
p765
S'lilypad'
p766
sS'unlock_bits'
p767
S'0x3F'
p768
ssS'name'
p769
S'LilyPad Arduino w/ ATmega168'
p770
sS'upload'
p771
(dp772
S'speed'
p773
S'19200'
p774
sS'maximum_size'
p775
S'14336'
p776
sS'protocol'
p777
S'arduino'
p778
ssaa(lp779
S'pro5v328'
p780
a(dp781
S'build'
p782
(dp783
S'core'
p784
S'arduino'
p785
sS'mcu'
p786
S'atmega328p'
p787
sS'f_cpu'
p788
S'16000000L'
p789
sS'variant'
p790
S'standard'
p791
ssS'bootloader'
p792
(dp793
S'extended_fuses'
p794
S'0x05'
p795
sS'high_fuses'
p796
S'0xDA'
p797
sS'low_fuses'
p798
S'0xFF'
p799
sS'lock_bits'
p800
S'0x0F'
p801
sS'file'
p802
S'ATmegaBOOT_168_atmega328.hex'
p803
sS'path'
p804
S'atmega'
p805
sS'unlock_bits'
p806
S'0x3F'
p807
ssS'name'
p808
S'Arduino Pro or Pro Mini (5V, 16 MHz) w/ ATmega328'
p809
sS'upload'
p810
(dp811
S'speed'
p812
S'57600'
p813
sS'maximum_size'
p814
S'30720'
p815
sS'protocol'
p816
S'arduino'
p817
ssaa(lp818
S'pro5v'
p819
a(dp820
S'build'
p821
(dp822
S'core'
p823
S'arduino'
p824
sS'mcu'
p825
S'atmega168'
p826
sS'f_cpu'
p827
S'16000000L'
p828
sS'variant'
p829
S'standard'
p830
ssS'bootloader'
p831
(dp832
S'extended_fuses'
p833
S'0x00'
p834
sS'high_fuses'
p835
S'0xdd'
p836
sS'low_fuses'
p837
S'0xff'
p838
sS'lock_bits'
p839
S'0x0F'
p840
sS'file'
p841
S'ATmegaBOOT_168_diecimila.hex'
p842
sS'path'
p843
S'atmega'
p844
sS'unlock_bits'
p845
S'0x3F'
p846
ssS'name'
p847
S'Arduino Pro or Pro Mini (5V, 16 MHz) w/ ATmega168'
p848
sS'upload'
p849
(dp850
S'speed'
p851
S'19200'
p852
sS'maximum_size'
p853
S'14336'
p854
sS'protocol'
p855
S'arduino'
p856
ssaa(lp857
S'pro328'
p858
a(dp859
S'build'
p860
(dp861
S'core'
p862
S'arduino'
p863
sS'mcu'
p864
S'atmega328p'
p865
sS'f_cpu'
p866
S'8000000L'
p867
sS'variant'
p868
S'standard'
p869
ssS'bootloader'
p870
(dp871
S'extended_fuses'
p872
S'0x05'
p873
sS'high_fuses'
p874
S'0xDA'
p875
sS'low_fuses'
p876
S'0xFF'
p877
sS'lock_bits'
p878
S'0x0F'
p879
sS'file'
p880
S'ATmegaBOOT_168_atmega328_pro_8MHz.hex'
p881
sS'path'
p882
S'atmega'
p883
sS'unlock_bits'
p884
S'0x3F'
p885
ssS'name'
p886
S'Arduino Pro or Pro Mini (3.3V, 8 MHz) w/ ATmega328'
p887
sS'upload'
p888
(dp889
S'speed'
p890
S'57600'
p891
sS'maximum_size'
p892
S'30720'
p893
sS'protocol'
p894
S'arduino'
p895
ssaa(lp896
S'pro'
p897
a(dp898
S'build'
p899
(dp900
S'core'
p901
S'arduino'
p902
sS'mcu'
p903
S'atmega168'
p904
sS'f_cpu'
p905
S'8000000L'
p906
sS'variant'
p907
S'standard'
p908
ssS'bootloader'
p909
(dp910
S'extended_fuses'
p911
S'0x00'
p912
sS'high_fuses'
p913
S'0xdd'
p914
sS'low_fuses'
p915
S'0xc6'
p916
sS'lock_bits'
p917
S'0x0F'
p918
sS'file'
p919
S'ATmegaBOOT_168_pro_8MHz.hex'
p920
sS'path'
p921
S'atmega'
p922
sS'unlock_bits'
p923
S'0x3F'
p924
ssS'name'
p925
S'Arduino Pro or Pro Mini (3.3V, 8 MHz) w/ ATmega168'
p926
sS'upload'
p927
(dp928
S'speed'
p929
S'19200'
p930
sS'maximum_size'
p931
S'14336'
p932
sS'protocol'
p933
S'arduino'
p934
ssaa(lp935
S'atmega168'
p936
a(dp937
S'build'
p938
(dp939
S'core'
p940
S'arduino'
p941
sS'mcu'
p942
S'atmega168'
p943
sS'f_cpu'
p944
S'16000000L'
p945
sS'variant'
p946
S'standard'
p947
ssS'bootloader'
p948
(dp949
S'extended_fuses'
p950
S'0x00'
p951
sS'high_fuses'
p952
S'0xdd'
p953
sS'low_fuses'
p954
S'0xff'
p955
sS'lock_bits'
p956
S'0x0F'
p957
sS'file'
p958
S'ATmegaBOOT_168_ng.hex'
p959
sS'path'
p960
S'atmega'
p961
sS'unlock_bits'
p962
S'0x3F'
p963
ssS'name'
p964
S'Arduino NG or older w/ ATmega168'
p965
sS'upload'
p966
(dp967
S'speed'
p968
S'19200'
p969
sS'maximum_size'
p970
S'14336'
p971
sS'protocol'
p972
S'arduino'
p973
ssaa(lp974
S'atmega8'
p975
a(dp976
S'build'
p977
(dp978
S'core'
p979
S'arduino'
p980
sS'mcu'
p981
S'atmega8'
p982
sS'f_cpu'
p983
S'16000000L'
p984
sS'variant'
p985
S'standard'
p986
ssS'bootloader'
p987
(dp988
S'high_fuses'
p989
S'0xca'
p990
sS'low_fuses'
p991
S'0xdf'
p992
sS'lock_bits'
p993
S'0x0F'
p994
sS'file'
p995
S'ATmegaBOOT-prod-firmware-2009-11-07.hex'
p996
sS'path'
p997
S'atmega8'
p998
sS'unlock_bits'
p999
S'0x3F'
p1000
ssS'name'
p1001
S'Arduino NG or older w/ ATmega8'
p1002
sS'upload'
p1003
(dp1004
S'speed'
p1005
S'19200'
p1006
sS'maximum_size'
p1007
S'7168'
p1008
sS'protocol'
p1009
S'arduino'
p1010
ssaa(lp1011
S'robotControl'
p1012
a(dp1013
S'build'
p1014
(dp1015
S'core'
p1016
S'robot'
p1017
sS'f_cpu'
p1018
S'16000000L'
p1019
sS'vid'
p1020
S'0x2341'
p1021
sS'pid'
p1022
S'0x8038'
p1023
sS'variant'
p1024
S'robot_control'
p1025
sS'mcu'
p1026
S'atmega32u4'
p1027
ssS'bootloader'
p1028
(dp1029
S'extended_fuses'
p1030
S'0xcb'
p1031
sS'high_fuses'
p1032
S'0xd8'
p1033
sS'low_fuses'
p1034
S'0xff'
p1035
sS'lock_bits'
p1036
S'0x2F'
p1037
sS'file'
p1038
S'Caterina-Robot-Control.hex'
p1039
sS'path'
p1040
S'caterina-Arduino_Robot'
p1041
sS'unlock_bits'
p1042
S'0x3F'
p1043
ssS'name'
p1044
S'Arduino Robot Control'
p1045
sS'upload'
p1046
(dp1047
S'speed'
p1048
S'57600'
p1049
sS'maximum_size'
p1050
S'28672'
p1051
sS'protocol'
p1052
S'avr109'
p1053
sS'disable_flushing'
p1054
S'true'
p1055
ssaa(lp1056
S'robotMotor'
p1057
a(dp1058
S'build'
p1059
(dp1060
S'core'
p1061
S'robot'
p1062
sS'f_cpu'
p1063
S'16000000L'
p1064
sS'vid'
p1065
S'0x2341'
p1066
sS'pid'
p1067
S'0x8039'
p1068
sS'variant'
p1069
S'robot_motor'
p1070
sS'mcu'
p1071
S'atmega32u4'
p1072
ssS'bootloader'
p1073
(dp1074
S'extended_fuses'
p1075
S'0xcb'
p1076
sS'high_fuses'
p1077
S'0xd8'
p1078
sS'low_fuses'
p1079
S'0xff'
p1080
sS'lock_bits'
p1081
S'0x2F'
p1082
sS'file'
p1083
S'Caterina-Robot-Motor.hex'
p1084
sS'path'
p1085
S'caterina-Arduino_Robot'
p1086
sS'unlock_bits'
p1087
S'0x3F'
p1088
ssS'name'
p1089
S'Arduino Robot Motor'
p1090
sS'upload'
p1091
(dp1092
S'speed'
p1093
S'57600'
p1094
sS'maximum_size'
p1095
S'28672'
p1096
sS'protocol'
p1097
S'avr109'
p1098
sS'disable_flushing'
p1099
S'true'
p1100
ssaatp1101
Rp1102
(dp1103
S'default'
p1104
S'uno'
p1105
sbtp1106
a(S'boards.txt'
p1107
S'/usr/share/arduino/hardware/arduino/avr/boards.txt'
p1108
tp1109
a.