(lp0
(S'cppflags'
p1
ccopy_reg
_reconstructor
p2
(cino.utils
SpaceList
p3
c__builtin__
list
p4
(lp5
S'-mmcu=atmega2560'
p6
aS'-DF_CPU=16000000L'
p7
aS'-DARDUINO=105'
p8
aS'-I/usr/share/arduino/hardware/arduino/cores/arduino'
p9
aS'-ffunction-sections'
p10
aS'-fdata-sections'
p11
aS'-g'
p12
aS'-Os'
p13
aS'-w'
p14
aS'-I/usr/share/arduino/hardware/arduino/variants/mega'
p15
aS'-I/usr/share/arduino/hardware/arduino/cores/arduino'
p16
aS'-I/usr/share/arduino/hardware/arduino/cores/arduino/avr-libc'
p17
aS'-Ilib/ros_lib'
p18
aS'-Ilib/ros_lib/tests'
p19
aS'-Ilib/ros_lib/rospy_tutorials'
p20
aS'-Ilib/ros_lib/actionlib'
p21
aS'-Ilib/ros_lib/turtle_actionlib'
p22
aS'-Ilib/ros_lib/bond'
p23
aS'-Ilib/ros_lib/rosgraph_msgs'
p24
aS'-Ilib/ros_lib/zeroconf_msgs'
p25
aS'-Ilib/ros_lib/pcl_msgs'
p26
aS'-Ilib/ros_lib/gateway_msgs'
p27
aS'-Ilib/ros_lib/capabilities'
p28
aS'-Ilib/ros_lib/rocon_std_msgs'
p29
aS'-Ilib/ros_lib/polled_camera'
p30
aS'-Ilib/ros_lib/base_local_planner'
p31
aS'-Ilib/ros_lib/actionlib_tutorials'
p32
aS'-Ilib/ros_lib/image_recognition_msgs'
p33
aS'-Ilib/ros_lib/create_node'
p34
aS'-Ilib/ros_lib/rocon_interaction_msgs'
p35
aS'-Ilib/ros_lib/navfn'
p36
aS'-Ilib/ros_lib/statistics_msgs'
p37
aS'-Ilib/ros_lib/roscpp_tutorials'
p38
aS'-Ilib/ros_lib/turtlesim'
p39
aS'-Ilib/ros_lib/map_msgs'
p40
aS'-Ilib/ros_lib/robot_pose_ekf'
p41
aS'-Ilib/ros_lib/theora_image_transport'
p42
aS'-Ilib/ros_lib/stereo_msgs'
p43
aS'-Ilib/ros_lib/roscpp'
p44
aS'-Ilib/ros_lib/nodelet'
p45
aS'-Ilib/ros_lib/image_exposure_msgs'
p46
aS'-Ilib/ros_lib/multimaster_msgs'
p47
aS'-Ilib/ros_lib/twist_mux_msgs'
p48
aS'-Ilib/ros_lib/kobuki_msgs'
p49
aS'-Ilib/ros_lib/uuid_msgs'
p50
aS'-Ilib/ros_lib/control_msgs'
p51
aS'-Ilib/ros_lib/actionlib_msgs'
p52
aS'-Ilib/ros_lib/topic_tools'
p53
aS'-Ilib/ros_lib/calibration_msgs'
p54
aS'-Ilib/ros_lib/move_base_msgs'
p55
aS'-Ilib/ros_lib/opencv_apps'
p56
aS'-Ilib/ros_lib/dynamic_reconfigure'
p57
aS'-Ilib/ros_lib/smach_msgs'
p58
aS'-Ilib/ros_lib/rocon_service_pair_msgs'
p59
aS'-Ilib/ros_lib/realsense2_camera'
p60
aS'-Ilib/ros_lib/tf2_msgs'
p61
aS'-Ilib/ros_lib/robot_localization'
p62
aS'-Ilib/ros_lib/multimaster_msgs_fkie'
p63
aS'-Ilib/ros_lib/shape_msgs'
p64
aS'-Ilib/ros_lib/rosserial_arduino'
p65
aS'-Ilib/ros_lib/visualization_msgs'
p66
aS'-Ilib/ros_lib/nav_msgs'
p67
aS'-Ilib/ros_lib/geometry_msgs'
p68
aS'-Ilib/ros_lib/rocon_app_manager_msgs'
p69
aS'-Ilib/ros_lib/diagnostic_msgs'
p70
aS'-Ilib/ros_lib/trajectory_msgs'
p71
aS'-Ilib/ros_lib/ros'
p72
aS'-Ilib/ros_lib/std_msgs'
p73
aS'-Ilib/ros_lib/costmap_2d'
p74
aS'-Ilib/ros_lib/sensor_msgs'
p75
aS'-Ilib/ros_lib/controller_manager_msgs'
p76
aS'-Ilib/ros_lib/laser_assembler'
p77
aS'-Ilib/ros_lib/rosserial_msgs'
p78
aS'-Ilib/ros_lib/geographic_msgs'
p79
aS'-Ilib/ros_lib/tf'
p80
aS'-Ilib/ros_lib/gazebo_msgs'
p81
aS'-Ilib/ros_lib/image_cb_detector'
p82
aS'-Ilib/ros_lib/control_toolbox'
p83
aS'-Ilib/ros_lib/std_srvs'
p84
aS'-Ilib/ros_lib/tests/array_test'
p85
aS'-Ilib/ros_lib/tests/time_test'
p86
aS'-Ilib/ros_lib/tests/float64_test'
p87
atp88
Rp89
tp90
a(S'cxx'
p91
S'/usr/share/arduino/hardware/tools/avr/bin/avr-g++'
p92
tp93
a(S'build_dir'
p94
S'.build/mega2560'
p95
tp96
a(S'avrdude'
p97
S'/usr/share/arduino/hardware/tools/avrdude'
p98
tp99
a(S'ar'
p100
S'/usr/share/arduino/hardware/tools/avr/bin/avr-ar'
p101
tp102
a(S'names'
p103
(dp104
S'cpp'
p105
S'%s.cpp'
p106
sS'obj'
p107
S'%s.o'
p108
sS'lib'
p109
S'lib%s.a'
p110
sS'deps'
p111
S'%s.d'
p112
stp113
a(S'ldflags'
p114
g2
(g3
g4
(lp115
g6
aS'-Wl,-Os'
p116
aS'-Wl,--gc-sections'
p117
atp118
Rp119
tp120
a(S'arduino_lib_version'
p121
g2
(cino.environment
Version
p122
c__builtin__
tuple
p123
(I1
I0
I5
tp124
tp125
Rp126
tp127
a(S'objcopy'
p128
S'/usr/share/arduino/hardware/tools/avr/bin/avr-objcopy'
p129
tp130
a(S'board_models'
p131
cino.environment
BoardModels
p132
((lp133
(lp134
S'uno'
p135
a(dp136
S'_coredir'
p137
S'/usr/share/arduino/hardware/arduino'
p138
sS'bootloader'
p139
(dp140
S'extended_fuses'
p141
S'0x05'
p142
sS'high_fuses'
p143
S'0xde'
p144
sS'low_fuses'
p145
S'0xff'
p146
sS'lock_bits'
p147
S'0x0F'
p148
sS'file'
p149
S'optiboot_atmega328.hex'
p150
sS'path'
p151
S'optiboot'
p152
sS'unlock_bits'
p153
S'0x3F'
p154
ssS'upload'
p155
(dp156
S'protocol'
p157
S'arduino'
p158
sS'maximum_size'
p159
S'32256'
p160
sS'speed'
p161
S'115200'
p162
ssS'name'
p163
S'Arduino Uno'
p164
sS'build'
p165
(dp166
S'core'
p167
S'arduino'
p168
sS'mcu'
p169
S'atmega328p'
p170
sS'f_cpu'
p171
S'16000000L'
p172
sS'variant'
p173
S'standard'
p174
ssaa(lp175
S'atmega328'
p176
a(dp177
g137
S'/usr/share/arduino/hardware/arduino'
p178
sS'bootloader'
p179
(dp180
S'extended_fuses'
p181
S'0x05'
p182
sS'high_fuses'
p183
S'0xDA'
p184
sS'low_fuses'
p185
S'0xFF'
p186
sS'lock_bits'
p187
S'0x0F'
p188
sS'file'
p189
S'ATmegaBOOT_168_atmega328.hex'
p190
sS'path'
p191
S'atmega'
p192
sS'unlock_bits'
p193
S'0x3F'
p194
ssS'upload'
p195
(dp196
S'protocol'
p197
S'arduino'
p198
sS'maximum_size'
p199
S'30720'
p200
sS'speed'
p201
S'57600'
p202
ssS'name'
p203
S'Arduino Duemilanove w/ ATmega328'
p204
sS'build'
p205
(dp206
S'core'
p207
S'arduino'
p208
sS'mcu'
p209
S'atmega328p'
p210
sS'f_cpu'
p211
S'16000000L'
p212
sS'variant'
p213
S'standard'
p214
ssaa(lp215
S'diecimila'
p216
a(dp217
g137
S'/usr/share/arduino/hardware/arduino'
p218
sS'bootloader'
p219
(dp220
S'extended_fuses'
p221
S'0x00'
p222
sS'high_fuses'
p223
S'0xdd'
p224
sS'low_fuses'
p225
S'0xff'
p226
sS'lock_bits'
p227
S'0x0F'
p228
sS'file'
p229
S'ATmegaBOOT_168_diecimila.hex'
p230
sS'path'
p231
S'atmega'
p232
sS'unlock_bits'
p233
S'0x3F'
p234
ssS'upload'
p235
(dp236
S'protocol'
p237
S'arduino'
p238
sS'maximum_size'
p239
S'14336'
p240
sS'speed'
p241
S'19200'
p242
ssS'name'
p243
S'Arduino Diecimila or Duemilanove w/ ATmega168'
p244
sS'build'
p245
(dp246
S'core'
p247
S'arduino'
p248
sS'mcu'
p249
S'atmega168'
p250
sS'f_cpu'
p251
S'16000000L'
p252
sS'variant'
p253
S'standard'
p254
ssaa(lp255
S'nano328'
p256
a(dp257
g137
S'/usr/share/arduino/hardware/arduino'
p258
sS'bootloader'
p259
(dp260
S'extended_fuses'
p261
S'0x05'
p262
sS'high_fuses'
p263
S'0xDA'
p264
sS'low_fuses'
p265
S'0xFF'
p266
sS'lock_bits'
p267
S'0x0F'
p268
sS'file'
p269
S'ATmegaBOOT_168_atmega328.hex'
p270
sS'path'
p271
S'atmega'
p272
sS'unlock_bits'
p273
S'0x3F'
p274
ssS'upload'
p275
(dp276
S'protocol'
p277
S'arduino'
p278
sS'maximum_size'
p279
S'30720'
p280
sS'speed'
p281
S'57600'
p282
ssS'name'
p283
S'Arduino Nano w/ ATmega328'
p284
sS'build'
p285
(dp286
S'core'
p287
S'arduino'
p288
sS'mcu'
p289
S'atmega328p'
p290
sS'f_cpu'
p291
S'16000000L'
p292
sS'variant'
p293
S'eightanaloginputs'
p294
ssaa(lp295
S'nano'
p296
a(dp297
g137
S'/usr/share/arduino/hardware/arduino'
p298
sS'bootloader'
p299
(dp300
S'extended_fuses'
p301
S'0x00'
p302
sS'high_fuses'
p303
S'0xdd'
p304
sS'low_fuses'
p305
S'0xff'
p306
sS'lock_bits'
p307
S'0x0F'
p308
sS'file'
p309
S'ATmegaBOOT_168_diecimila.hex'
p310
sS'path'
p311
S'atmega'
p312
sS'unlock_bits'
p313
S'0x3F'
p314
ssS'upload'
p315
(dp316
S'protocol'
p317
S'arduino'
p318
sS'maximum_size'
p319
S'14336'
p320
sS'speed'
p321
S'19200'
p322
ssS'name'
p323
S'Arduino Nano w/ ATmega168'
p324
sS'build'
p325
(dp326
S'core'
p327
S'arduino'
p328
sS'mcu'
p329
S'atmega168'
p330
sS'f_cpu'
p331
S'16000000L'
p332
sS'variant'
p333
S'eightanaloginputs'
p334
ssaa(lp335
S'mega2560'
p336
a(dp337
g137
S'/usr/share/arduino/hardware/arduino'
p338
sS'bootloader'
p339
(dp340
S'extended_fuses'
p341
S'0xFD'
p342
sS'high_fuses'
p343
S'0xD8'
p344
sS'low_fuses'
p345
S'0xFF'
p346
sS'lock_bits'
p347
S'0x0F'
p348
sS'file'
p349
S'stk500boot_v2_mega2560.hex'
p350
sS'path'
p351
S'stk500v2'
p352
sS'unlock_bits'
p353
S'0x3F'
p354
ssS'upload'
p355
(dp356
S'protocol'
p357
S'wiring'
p358
sS'maximum_size'
p359
S'258048'
p360
sS'speed'
p361
S'115200'
p362
ssS'name'
p363
S'Arduino Mega 2560 or Mega ADK'
p364
sS'build'
p365
(dp366
S'core'
p367
S'arduino'
p368
sS'mcu'
p369
S'atmega2560'
p370
sS'f_cpu'
p371
S'16000000L'
p372
sS'variant'
p373
S'mega'
p374
ssaa(lp375
S'mega'
p376
a(dp377
g137
S'/usr/share/arduino/hardware/arduino'
p378
sS'bootloader'
p379
(dp380
S'extended_fuses'
p381
S'0xF5'
p382
sS'high_fuses'
p383
S'0xDA'
p384
sS'low_fuses'
p385
S'0xFF'
p386
sS'lock_bits'
p387
S'0x0F'
p388
sS'file'
p389
S'ATmegaBOOT_168_atmega1280.hex'
p390
sS'path'
p391
S'atmega'
p392
sS'unlock_bits'
p393
S'0x3F'
p394
ssS'upload'
p395
(dp396
S'protocol'
p397
S'arduino'
p398
sS'maximum_size'
p399
S'126976'
p400
sS'speed'
p401
S'57600'
p402
ssS'name'
p403
S'Arduino Mega (ATmega1280)'
p404
sS'build'
p405
(dp406
S'core'
p407
S'arduino'
p408
sS'mcu'
p409
S'atmega1280'
p410
sS'f_cpu'
p411
S'16000000L'
p412
sS'variant'
p413
S'mega'
p414
ssaa(lp415
S'leonardo'
p416
a(dp417
g137
S'/usr/share/arduino/hardware/arduino'
p418
sS'bootloader'
p419
(dp420
S'extended_fuses'
p421
S'0xcb'
p422
sS'high_fuses'
p423
S'0xd8'
p424
sS'low_fuses'
p425
S'0xff'
p426
sS'lock_bits'
p427
S'0x2F'
p428
sS'file'
p429
S'Caterina-Leonardo.hex'
p430
sS'path'
p431
S'caterina'
p432
sS'unlock_bits'
p433
S'0x3F'
p434
ssS'upload'
p435
(dp436
S'protocol'
p437
S'avr109'
p438
sS'maximum_size'
p439
S'28672'
p440
sS'speed'
p441
S'57600'
p442
sS'disable_flushing'
p443
S'true'
p444
ssS'name'
p445
S'Arduino Leonardo'
p446
sS'build'
p447
(dp448
S'core'
p449
S'arduino'
p450
sS'f_cpu'
p451
S'16000000L'
p452
sS'vid'
p453
S'0x2341'
p454
sS'pid'
p455
S'0x8036'
p456
sS'variant'
p457
S'leonardo'
p458
sS'mcu'
p459
S'atmega32u4'
p460
ssaa(lp461
S'esplora'
p462
a(dp463
g137
S'/usr/share/arduino/hardware/arduino'
p464
sS'bootloader'
p465
(dp466
S'extended_fuses'
p467
S'0xcb'
p468
sS'high_fuses'
p469
S'0xd8'
p470
sS'low_fuses'
p471
S'0xff'
p472
sS'lock_bits'
p473
S'0x2F'
p474
sS'file'
p475
S'Caterina-Esplora.hex'
p476
sS'path'
p477
S'caterina'
p478
sS'unlock_bits'
p479
S'0x3F'
p480
ssS'upload'
p481
(dp482
S'protocol'
p483
S'avr109'
p484
sS'maximum_size'
p485
S'28672'
p486
sS'speed'
p487
S'57600'
p488
sS'disable_flushing'
p489
S'true'
p490
ssS'name'
p491
S'Arduino Esplora'
p492
sS'build'
p493
(dp494
S'core'
p495
S'arduino'
p496
sS'f_cpu'
p497
S'16000000L'
p498
sS'vid'
p499
S'0x2341'
p500
sS'pid'
p501
S'0x803C'
p502
sS'variant'
p503
S'leonardo'
p504
sS'mcu'
p505
S'atmega32u4'
p506
ssaa(lp507
S'micro'
p508
a(dp509
g137
S'/usr/share/arduino/hardware/arduino'
p510
sS'bootloader'
p511
(dp512
S'extended_fuses'
p513
S'0xcb'
p514
sS'high_fuses'
p515
S'0xd8'
p516
sS'low_fuses'
p517
S'0xff'
p518
sS'lock_bits'
p519
S'0x2F'
p520
sS'file'
p521
S'Caterina-Micro.hex'
p522
sS'path'
p523
S'caterina'
p524
sS'unlock_bits'
p525
S'0x3F'
p526
ssS'upload'
p527
(dp528
S'protocol'
p529
S'avr109'
p530
sS'maximum_size'
p531
S'28672'
p532
sS'speed'
p533
S'57600'
p534
sS'disable_flushing'
p535
S'true'
p536
ssS'name'
p537
S'Arduino Micro'
p538
sS'build'
p539
(dp540
S'core'
p541
S'arduino'
p542
sS'f_cpu'
p543
S'16000000L'
p544
sS'vid'
p545
S'0x2341'
p546
sS'pid'
p547
S'0x8037'
p548
sS'variant'
p549
S'micro'
p550
sS'mcu'
p551
S'atmega32u4'
p552
ssaa(lp553
S'mini328'
p554
a(dp555
g137
S'/usr/share/arduino/hardware/arduino'
p556
sS'bootloader'
p557
(dp558
S'extended_fuses'
p559
S'0x05'
p560
sS'high_fuses'
p561
S'0xd8'
p562
sS'low_fuses'
p563
S'0xff'
p564
sS'lock_bits'
p565
S'0x0F'
p566
sS'file'
p567
S'optiboot_atmega328-Mini.hex'
p568
sS'path'
p569
S'optiboot'
p570
sS'unlock_bits'
p571
S'0x3F'
p572
ssS'upload'
p573
(dp574
S'protocol'
p575
S'arduino'
p576
sS'maximum_size'
p577
S'28672'
p578
sS'speed'
p579
S'115200'
p580
ssS'name'
p581
S'Arduino Mini w/ ATmega328'
p582
sS'build'
p583
(dp584
S'core'
p585
S'arduino'
p586
sS'mcu'
p587
S'atmega328p'
p588
sS'f_cpu'
p589
S'16000000L'
p590
sS'variant'
p591
S'eightanaloginputs'
p592
ssaa(lp593
S'mini'
p594
a(dp595
g137
S'/usr/share/arduino/hardware/arduino'
p596
sS'bootloader'
p597
(dp598
S'extended_fuses'
p599
S'0x00'
p600
sS'high_fuses'
p601
S'0xdd'
p602
sS'low_fuses'
p603
S'0xff'
p604
sS'lock_bits'
p605
S'0x0F'
p606
sS'file'
p607
S'ATmegaBOOT_168_ng.hex'
p608
sS'path'
p609
S'atmega'
p610
sS'unlock_bits'
p611
S'0x3F'
p612
ssS'upload'
p613
(dp614
S'protocol'
p615
S'arduino'
p616
sS'maximum_size'
p617
S'14336'
p618
sS'speed'
p619
S'19200'
p620
ssS'name'
p621
S'Arduino Mini w/ ATmega168'
p622
sS'build'
p623
(dp624
S'core'
p625
S'arduino'
p626
sS'mcu'
p627
S'atmega168'
p628
sS'f_cpu'
p629
S'16000000L'
p630
sS'variant'
p631
S'eightanaloginputs'
p632
ssaa(lp633
S'ethernet'
p634
a(dp635
g137
S'/usr/share/arduino/hardware/arduino'
p636
sS'bootloader'
p637
(dp638
S'extended_fuses'
p639
S'0x05'
p640
sS'high_fuses'
p641
S'0xde'
p642
sS'low_fuses'
p643
S'0xff'
p644
sS'lock_bits'
p645
S'0x0F'
p646
sS'file'
p647
S'optiboot_atmega328.hex'
p648
sS'path'
p649
S'optiboot'
p650
sS'unlock_bits'
p651
S'0x3F'
p652
ssS'upload'
p653
(dp654
S'protocol'
p655
S'arduino'
p656
sS'maximum_size'
p657
S'32256'
p658
sS'speed'
p659
S'115200'
p660
ssS'name'
p661
S'Arduino Ethernet'
p662
sS'build'
p663
(dp664
S'variant'
p665
S'standard'
p666
sS'mcu'
p667
S'atmega328p'
p668
sS'f_cpu'
p669
S'16000000L'
p670
sS'core'
p671
S'arduino'
p672
ssaa(lp673
S'fio'
p674
a(dp675
g137
S'/usr/share/arduino/hardware/arduino'
p676
sS'bootloader'
p677
(dp678
S'extended_fuses'
p679
S'0x05'
p680
sS'high_fuses'
p681
S'0xDA'
p682
sS'low_fuses'
p683
S'0xFF'
p684
sS'lock_bits'
p685
S'0x0F'
p686
sS'file'
p687
S'ATmegaBOOT_168_atmega328_pro_8MHz.hex'
p688
sS'path'
p689
S'arduino:atmega'
p690
sS'unlock_bits'
p691
S'0x3F'
p692
ssS'upload'
p693
(dp694
S'protocol'
p695
S'arduino'
p696
sS'maximum_size'
p697
S'30720'
p698
sS'speed'
p699
S'57600'
p700
ssS'name'
p701
S'Arduino Fio'
p702
sS'build'
p703
(dp704
S'core'
p705
S'arduino'
p706
sS'mcu'
p707
S'atmega328p'
p708
sS'f_cpu'
p709
S'8000000L'
p710
sS'variant'
p711
S'eightanaloginputs'
p712
ssaa(lp713
S'bt328'
p714
a(dp715
g137
S'/usr/share/arduino/hardware/arduino'
p716
sS'bootloader'
p717
(dp718
S'extended_fuses'
p719
S'0x05'
p720
sS'high_fuses'
p721
S'0xd8'
p722
sS'low_fuses'
p723
S'0xff'
p724
sS'lock_bits'
p725
S'0x0F'
p726
sS'file'
p727
S'ATmegaBOOT_168_atmega328_bt.hex'
p728
sS'path'
p729
S'bt'
p730
sS'unlock_bits'
p731
S'0x3F'
p732
ssS'upload'
p733
(dp734
S'protocol'
p735
S'arduino'
p736
sS'maximum_size'
p737
S'28672'
p738
sS'speed'
p739
S'19200'
p740
sS'disable_flushing'
p741
S'true'
p742
ssS'name'
p743
S'Arduino BT w/ ATmega328'
p744
sS'build'
p745
(dp746
S'core'
p747
S'arduino'
p748
sS'mcu'
p749
S'atmega328p'
p750
sS'f_cpu'
p751
S'16000000L'
p752
sS'variant'
p753
S'eightanaloginputs'
p754
ssaa(lp755
S'bt'
p756
a(dp757
g137
S'/usr/share/arduino/hardware/arduino'
p758
sS'bootloader'
p759
(dp760
S'extended_fuses'
p761
S'0x00'
p762
sS'high_fuses'
p763
S'0xdd'
p764
sS'low_fuses'
p765
S'0xff'
p766
sS'lock_bits'
p767
S'0x0F'
p768
sS'file'
p769
S'ATmegaBOOT_168.hex'
p770
sS'path'
p771
S'bt'
p772
sS'unlock_bits'
p773
S'0x3F'
p774
ssS'upload'
p775
(dp776
S'protocol'
p777
S'arduino'
p778
sS'maximum_size'
p779
S'14336'
p780
sS'speed'
p781
S'19200'
p782
sS'disable_flushing'
p783
S'true'
p784
ssS'name'
p785
S'Arduino BT w/ ATmega168'
p786
sS'build'
p787
(dp788
S'core'
p789
S'arduino'
p790
sS'mcu'
p791
S'atmega168'
p792
sS'f_cpu'
p793
S'16000000L'
p794
sS'variant'
p795
S'eightanaloginputs'
p796
ssaa(lp797
S'LilyPadUSB'
p798
a(dp799
g137
S'/usr/share/arduino/hardware/arduino'
p800
sS'bootloader'
p801
(dp802
S'extended_fuses'
p803
S'0xce'
p804
sS'high_fuses'
p805
S'0xd8'
p806
sS'low_fuses'
p807
S'0xff'
p808
sS'lock_bits'
p809
S'0x2F'
p810
sS'file'
p811
S'Caterina-LilyPadUSB.hex'
p812
sS'path'
p813
S'caterina-LilyPadUSB'
p814
sS'unlock_bits'
p815
S'0x3F'
p816
ssS'upload'
p817
(dp818
S'protocol'
p819
S'avr109'
p820
sS'maximum_size'
p821
S'28672'
p822
sS'speed'
p823
S'57600'
p824
sS'disable_flushing'
p825
S'true'
p826
ssS'name'
p827
S'LilyPad Arduino USB'
p828
sS'build'
p829
(dp830
S'core'
p831
S'arduino'
p832
sS'f_cpu'
p833
S'8000000L'
p834
sS'vid'
p835
S'0x1B4F'
p836
sS'pid'
p837
S'0x9208'
p838
sS'variant'
p839
S'leonardo'
p840
sS'mcu'
p841
S'atmega32u4'
p842
ssaa(lp843
S'lilypad328'
p844
a(dp845
g137
S'/usr/share/arduino/hardware/arduino'
p846
sS'bootloader'
p847
(dp848
S'extended_fuses'
p849
S'0x05'
p850
sS'high_fuses'
p851
S'0xDA'
p852
sS'low_fuses'
p853
S'0xFF'
p854
sS'lock_bits'
p855
S'0x0F'
p856
sS'file'
p857
S'ATmegaBOOT_168_atmega328_pro_8MHz.hex'
p858
sS'path'
p859
S'atmega'
p860
sS'unlock_bits'
p861
S'0x3F'
p862
ssS'upload'
p863
(dp864
S'protocol'
p865
S'arduino'
p866
sS'maximum_size'
p867
S'30720'
p868
sS'speed'
p869
S'57600'
p870
ssS'name'
p871
S'LilyPad Arduino w/ ATmega328'
p872
sS'build'
p873
(dp874
S'core'
p875
S'arduino'
p876
sS'mcu'
p877
S'atmega328p'
p878
sS'f_cpu'
p879
S'8000000L'
p880
sS'variant'
p881
S'standard'
p882
ssaa(lp883
S'lilypad'
p884
a(dp885
g137
S'/usr/share/arduino/hardware/arduino'
p886
sS'bootloader'
p887
(dp888
S'extended_fuses'
p889
S'0x00'
p890
sS'high_fuses'
p891
S'0xdd'
p892
sS'low_fuses'
p893
S'0xe2'
p894
sS'lock_bits'
p895
S'0x0F'
p896
sS'file'
p897
S'LilyPadBOOT_168.hex'
p898
sS'path'
p899
S'lilypad'
p900
sS'unlock_bits'
p901
S'0x3F'
p902
ssS'upload'
p903
(dp904
S'protocol'
p905
S'arduino'
p906
sS'maximum_size'
p907
S'14336'
p908
sS'speed'
p909
S'19200'
p910
ssS'name'
p911
S'LilyPad Arduino w/ ATmega168'
p912
sS'build'
p913
(dp914
S'core'
p915
S'arduino'
p916
sS'mcu'
p917
S'atmega168'
p918
sS'f_cpu'
p919
S'8000000L'
p920
sS'variant'
p921
S'standard'
p922
ssaa(lp923
S'pro5v328'
p924
a(dp925
g137
S'/usr/share/arduino/hardware/arduino'
p926
sS'bootloader'
p927
(dp928
S'extended_fuses'
p929
S'0x05'
p930
sS'high_fuses'
p931
S'0xDA'
p932
sS'low_fuses'
p933
S'0xFF'
p934
sS'lock_bits'
p935
S'0x0F'
p936
sS'file'
p937
S'ATmegaBOOT_168_atmega328.hex'
p938
sS'path'
p939
S'atmega'
p940
sS'unlock_bits'
p941
S'0x3F'
p942
ssS'upload'
p943
(dp944
S'protocol'
p945
S'arduino'
p946
sS'maximum_size'
p947
S'30720'
p948
sS'speed'
p949
S'57600'
p950
ssS'name'
p951
S'Arduino Pro or Pro Mini (5V, 16 MHz) w/ ATmega328'
p952
sS'build'
p953
(dp954
S'core'
p955
S'arduino'
p956
sS'mcu'
p957
S'atmega328p'
p958
sS'f_cpu'
p959
S'16000000L'
p960
sS'variant'
p961
S'standard'
p962
ssaa(lp963
S'pro5v'
p964
a(dp965
g137
S'/usr/share/arduino/hardware/arduino'
p966
sS'bootloader'
p967
(dp968
S'extended_fuses'
p969
S'0x00'
p970
sS'high_fuses'
p971
S'0xdd'
p972
sS'low_fuses'
p973
S'0xff'
p974
sS'lock_bits'
p975
S'0x0F'
p976
sS'file'
p977
S'ATmegaBOOT_168_diecimila.hex'
p978
sS'path'
p979
S'atmega'
p980
sS'unlock_bits'
p981
S'0x3F'
p982
ssS'upload'
p983
(dp984
S'protocol'
p985
S'arduino'
p986
sS'maximum_size'
p987
S'14336'
p988
sS'speed'
p989
S'19200'
p990
ssS'name'
p991
S'Arduino Pro or Pro Mini (5V, 16 MHz) w/ ATmega168'
p992
sS'build'
p993
(dp994
S'core'
p995
S'arduino'
p996
sS'mcu'
p997
S'atmega168'
p998
sS'f_cpu'
p999
S'16000000L'
p1000
sS'variant'
p1001
S'standard'
p1002
ssaa(lp1003
S'pro328'
p1004
a(dp1005
g137
S'/usr/share/arduino/hardware/arduino'
p1006
sS'bootloader'
p1007
(dp1008
S'extended_fuses'
p1009
S'0x05'
p1010
sS'high_fuses'
p1011
S'0xDA'
p1012
sS'low_fuses'
p1013
S'0xFF'
p1014
sS'lock_bits'
p1015
S'0x0F'
p1016
sS'file'
p1017
S'ATmegaBOOT_168_atmega328_pro_8MHz.hex'
p1018
sS'path'
p1019
S'atmega'
p1020
sS'unlock_bits'
p1021
S'0x3F'
p1022
ssS'upload'
p1023
(dp1024
S'protocol'
p1025
S'arduino'
p1026
sS'maximum_size'
p1027
S'30720'
p1028
sS'speed'
p1029
S'57600'
p1030
ssS'name'
p1031
S'Arduino Pro or Pro Mini (3.3V, 8 MHz) w/ ATmega328'
p1032
sS'build'
p1033
(dp1034
S'core'
p1035
S'arduino'
p1036
sS'mcu'
p1037
S'atmega328p'
p1038
sS'f_cpu'
p1039
S'8000000L'
p1040
sS'variant'
p1041
S'standard'
p1042
ssaa(lp1043
S'pro'
p1044
a(dp1045
g137
S'/usr/share/arduino/hardware/arduino'
p1046
sS'bootloader'
p1047
(dp1048
S'extended_fuses'
p1049
S'0x00'
p1050
sS'high_fuses'
p1051
S'0xdd'
p1052
sS'low_fuses'
p1053
S'0xc6'
p1054
sS'lock_bits'
p1055
S'0x0F'
p1056
sS'file'
p1057
S'ATmegaBOOT_168_pro_8MHz.hex'
p1058
sS'path'
p1059
S'atmega'
p1060
sS'unlock_bits'
p1061
S'0x3F'
p1062
ssS'upload'
p1063
(dp1064
S'protocol'
p1065
S'arduino'
p1066
sS'maximum_size'
p1067
S'14336'
p1068
sS'speed'
p1069
S'19200'
p1070
ssS'name'
p1071
S'Arduino Pro or Pro Mini (3.3V, 8 MHz) w/ ATmega168'
p1072
sS'build'
p1073
(dp1074
S'core'
p1075
S'arduino'
p1076
sS'mcu'
p1077
S'atmega168'
p1078
sS'f_cpu'
p1079
S'8000000L'
p1080
sS'variant'
p1081
S'standard'
p1082
ssaa(lp1083
S'atmega168'
p1084
a(dp1085
g137
S'/usr/share/arduino/hardware/arduino'
p1086
sS'bootloader'
p1087
(dp1088
S'extended_fuses'
p1089
S'0x00'
p1090
sS'high_fuses'
p1091
S'0xdd'
p1092
sS'low_fuses'
p1093
S'0xff'
p1094
sS'lock_bits'
p1095
S'0x0F'
p1096
sS'file'
p1097
S'ATmegaBOOT_168_ng.hex'
p1098
sS'path'
p1099
S'atmega'
p1100
sS'unlock_bits'
p1101
S'0x3F'
p1102
ssS'upload'
p1103
(dp1104
S'protocol'
p1105
S'arduino'
p1106
sS'maximum_size'
p1107
S'14336'
p1108
sS'speed'
p1109
S'19200'
p1110
ssS'name'
p1111
S'Arduino NG or older w/ ATmega168'
p1112
sS'build'
p1113
(dp1114
S'core'
p1115
S'arduino'
p1116
sS'mcu'
p1117
S'atmega168'
p1118
sS'f_cpu'
p1119
S'16000000L'
p1120
sS'variant'
p1121
S'standard'
p1122
ssaa(lp1123
S'atmega8'
p1124
a(dp1125
g137
S'/usr/share/arduino/hardware/arduino'
p1126
sS'bootloader'
p1127
(dp1128
S'high_fuses'
p1129
S'0xca'
p1130
sS'low_fuses'
p1131
S'0xdf'
p1132
sS'lock_bits'
p1133
S'0x0F'
p1134
sS'file'
p1135
S'ATmegaBOOT-prod-firmware-2009-11-07.hex'
p1136
sS'path'
p1137
S'atmega8'
p1138
sS'unlock_bits'
p1139
S'0x3F'
p1140
ssS'upload'
p1141
(dp1142
S'protocol'
p1143
S'arduino'
p1144
sS'maximum_size'
p1145
S'7168'
p1146
sS'speed'
p1147
S'19200'
p1148
ssS'name'
p1149
S'Arduino NG or older w/ ATmega8'
p1150
sS'build'
p1151
(dp1152
S'core'
p1153
S'arduino'
p1154
sS'mcu'
p1155
S'atmega8'
p1156
sS'f_cpu'
p1157
S'16000000L'
p1158
sS'variant'
p1159
S'standard'
p1160
ssaa(lp1161
S'robotControl'
p1162
a(dp1163
g137
S'/usr/share/arduino/hardware/arduino'
p1164
sS'bootloader'
p1165
(dp1166
S'extended_fuses'
p1167
S'0xcb'
p1168
sS'high_fuses'
p1169
S'0xd8'
p1170
sS'low_fuses'
p1171
S'0xff'
p1172
sS'lock_bits'
p1173
S'0x2F'
p1174
sS'file'
p1175
S'Caterina-Robot-Control.hex'
p1176
sS'path'
p1177
S'caterina-Arduino_Robot'
p1178
sS'unlock_bits'
p1179
S'0x3F'
p1180
ssS'upload'
p1181
(dp1182
S'protocol'
p1183
S'avr109'
p1184
sS'maximum_size'
p1185
S'28672'
p1186
sS'speed'
p1187
S'57600'
p1188
sS'disable_flushing'
p1189
S'true'
p1190
ssS'name'
p1191
S'Arduino Robot Control'
p1192
sS'build'
p1193
(dp1194
S'core'
p1195
S'robot'
p1196
sS'f_cpu'
p1197
S'16000000L'
p1198
sS'vid'
p1199
S'0x2341'
p1200
sS'pid'
p1201
S'0x8038'
p1202
sS'variant'
p1203
S'robot_control'
p1204
sS'mcu'
p1205
S'atmega32u4'
p1206
ssaa(lp1207
S'robotMotor'
p1208
a(dp1209
g137
S'/usr/share/arduino/hardware/arduino'
p1210
sS'bootloader'
p1211
(dp1212
S'extended_fuses'
p1213
S'0xcb'
p1214
sS'high_fuses'
p1215
S'0xd8'
p1216
sS'low_fuses'
p1217
S'0xff'
p1218
sS'lock_bits'
p1219
S'0x2F'
p1220
sS'file'
p1221
S'Caterina-Robot-Motor.hex'
p1222
sS'path'
p1223
S'caterina-Arduino_Robot'
p1224
sS'unlock_bits'
p1225
S'0x3F'
p1226
ssS'upload'
p1227
(dp1228
S'protocol'
p1229
S'avr109'
p1230
sS'maximum_size'
p1231
S'28672'
p1232
sS'speed'
p1233
S'57600'
p1234
sS'disable_flushing'
p1235
S'true'
p1236
ssS'name'
p1237
S'Arduino Robot Motor'
p1238
sS'build'
p1239
(dp1240
S'core'
p1241
S'robot'
p1242
sS'f_cpu'
p1243
S'16000000L'
p1244
sS'vid'
p1245
S'0x2341'
p1246
sS'pid'
p1247
S'0x8039'
p1248
sS'variant'
p1249
S'robot_motor'
p1250
sS'mcu'
p1251
S'atmega32u4'
p1252
ssaatp1253
Rp1254
(dp1255
S'default'
p1256
S'uno'
p1257
sbtp1258
a(S'used_libs'
p1259
(lp1260
S'/usr/share/arduino/hardware/arduino/cores/arduino'
p1261
aS'lib/ros_lib'
p1262
atp1263
a(S'make'
p1264
S'/usr/share/arduino/hardware/tools/avr/bin/make'
p1265
tp1266
a(S'arduino_libraries_dir'
p1267
S'/usr/share/arduino/libraries'
p1268
tp1269
a(S'cc'
p1270
S'/usr/share/arduino/hardware/tools/avr/bin/avr-gcc'
p1271
tp1272
a(S'cflags'
p1273
g2
(g3
g4
(lp1274
tp1275
Rp1276
tp1277
a(S'cxxflags'
p1278
g2
(g3
g4
(lp1279
S'-fno-exceptions'
p1280
atp1281
Rp1282
tp1283
a(S'arduino_variants_dir'
p1284
S'/usr/share/arduino/hardware/arduino/variants'
p1285
tp1286
a(S'serial'
p1287
S'/usr/bin/picocom'
p1288
tp1289
a(S'stty'
p1290
S'/bin/stty'
p1291
tp1292
a(S'version.txt'
p1293
S'/usr/share/arduino/lib/version.txt'
p1294
tp1295
a(S'arduino_core_dir'
p1296
g1261
tp1297
a(S'boards.txt'
p1298
(lp1299
S'/usr/share/arduino/hardware/arduino/boards.txt'
p1300
atp1301
a(S'avrdude.conf'
p1302
S'/usr/share/arduino/hardware/tools/avrdude.conf'
p1303
tp1304
a(S'deps'
p1305
g2
(g3
g4
(lp1306
S'.build/mega2560/src/dependencies.d'
p1307
aS'.build/mega2560/arduino/dependencies.d'
p1308
aS'.build/mega2560/ros_lib/dependencies.d'
p1309
atp1310
Rp1311
tp1312
a.