(lp0
(S'cppflags'
p1
ccopy_reg
_reconstructor
p2
(cino.utils
SpaceList
p3
c__builtin__
list
p4
(lp5
S'-mmcu=atmega2560'
p6
aS'-DF_CPU=16000000L'
p7
aS'-DARDUINO=105'
p8
aS'-I/usr/share/arduino/hardware/arduino/cores/arduino'
p9
aS'-ffunction-sections'
p10
aS'-fdata-sections'
p11
aS'-g'
p12
aS'-Os'
p13
aS'-w'
p14
aS'-I/usr/share/arduino/hardware/arduino/variants/mega'
p15
aS'-I/usr/share/arduino/hardware/arduino/cores/arduino'
p16
aS'-I/usr/share/arduino/hardware/arduino/cores/arduino/avr-libc'
p17
aS'-Ilib/ros_lib'
p18
aS'-Ilib/ros_lib/tests'
p19
aS'-Ilib/ros_lib/rospy_tutorials'
p20
aS'-Ilib/ros_lib/actionlib'
p21
aS'-Ilib/ros_lib/turtle_actionlib'
p22
aS'-Ilib/ros_lib/bond'
p23
aS'-Ilib/ros_lib/rosgraph_msgs'
p24
aS'-Ilib/ros_lib/zeroconf_msgs'
p25
aS'-Ilib/ros_lib/pcl_msgs'
p26
aS'-Ilib/ros_lib/gateway_msgs'
p27
aS'-Ilib/ros_lib/capabilities'
p28
aS'-Ilib/ros_lib/rocon_std_msgs'
p29
aS'-Ilib/ros_lib/polled_camera'
p30
aS'-Ilib/ros_lib/base_local_planner'
p31
aS'-Ilib/ros_lib/actionlib_tutorials'
p32
aS'-Ilib/ros_lib/image_recognition_msgs'
p33
aS'-Ilib/ros_lib/create_node'
p34
aS'-Ilib/ros_lib/rocon_interaction_msgs'
p35
aS'-Ilib/ros_lib/navfn'
p36
aS'-Ilib/ros_lib/statistics_msgs'
p37
aS'-Ilib/ros_lib/roscpp_tutorials'
p38
aS'-Ilib/ros_lib/turtlesim'
p39
aS'-Ilib/ros_lib/map_msgs'
p40
aS'-Ilib/ros_lib/robot_pose_ekf'
p41
aS'-Ilib/ros_lib/theora_image_transport'
p42
aS'-Ilib/ros_lib/stereo_msgs'
p43
aS'-Ilib/ros_lib/rosserial_mbed'
p44
aS'-Ilib/ros_lib/roscpp'
p45
aS'-Ilib/ros_lib/nodelet'
p46
aS'-Ilib/ros_lib/image_exposure_msgs'
p47
aS'-Ilib/ros_lib/multimaster_msgs'
p48
aS'-Ilib/ros_lib/twist_mux_msgs'
p49
aS'-Ilib/ros_lib/kobuki_msgs'
p50
aS'-Ilib/ros_lib/uuid_msgs'
p51
aS'-Ilib/ros_lib/control_msgs'
p52
aS'-Ilib/ros_lib/actionlib_msgs'
p53
aS'-Ilib/ros_lib/topic_tools'
p54
aS'-Ilib/ros_lib/calibration_msgs'
p55
aS'-Ilib/ros_lib/move_base_msgs'
p56
aS'-Ilib/ros_lib/opencv_apps'
p57
aS'-Ilib/ros_lib/dynamic_reconfigure'
p58
aS'-Ilib/ros_lib/smach_msgs'
p59
aS'-Ilib/ros_lib/rocon_service_pair_msgs'
p60
aS'-Ilib/ros_lib/realsense2_camera'
p61
aS'-Ilib/ros_lib/tf2_msgs'
p62
aS'-Ilib/ros_lib/robot_localization'
p63
aS'-Ilib/ros_lib/multimaster_msgs_fkie'
p64
aS'-Ilib/ros_lib/shape_msgs'
p65
aS'-Ilib/ros_lib/rosserial_arduino'
p66
aS'-Ilib/ros_lib/visualization_msgs'
p67
aS'-Ilib/ros_lib/nav_msgs'
p68
aS'-Ilib/ros_lib/geometry_msgs'
p69
aS'-Ilib/ros_lib/rocon_app_manager_msgs'
p70
aS'-Ilib/ros_lib/diagnostic_msgs'
p71
aS'-Ilib/ros_lib/trajectory_msgs'
p72
aS'-Ilib/ros_lib/ros'
p73
aS'-Ilib/ros_lib/std_msgs'
p74
aS'-Ilib/ros_lib/costmap_2d'
p75
aS'-Ilib/ros_lib/sensor_msgs'
p76
aS'-Ilib/ros_lib/controller_manager_msgs'
p77
aS'-Ilib/ros_lib/laser_assembler'
p78
aS'-Ilib/ros_lib/rosserial_msgs'
p79
aS'-Ilib/ros_lib/geographic_msgs'
p80
aS'-Ilib/ros_lib/tf'
p81
aS'-Ilib/ros_lib/gazebo_msgs'
p82
aS'-Ilib/ros_lib/image_cb_detector'
p83
aS'-Ilib/ros_lib/control_toolbox'
p84
aS'-Ilib/ros_lib/std_srvs'
p85
aS'-Ilib/ros_lib/tests/array_test'
p86
aS'-Ilib/ros_lib/tests/time_test'
p87
aS'-Ilib/ros_lib/tests/float64_test'
p88
atp89
Rp90
tp91
a(S'cxx'
p92
S'/usr/share/arduino/hardware/tools/avr/bin/avr-g++'
p93
tp94
a(S'build_dir'
p95
S'.build/mega2560'
p96
tp97
a(S'avrdude'
p98
S'/usr/share/arduino/hardware/tools/avrdude'
p99
tp100
a(S'ar'
p101
S'/usr/share/arduino/hardware/tools/avr/bin/avr-ar'
p102
tp103
a(S'names'
p104
(dp105
S'cpp'
p106
S'%s.cpp'
p107
sS'obj'
p108
S'%s.o'
p109
sS'lib'
p110
S'lib%s.a'
p111
sS'deps'
p112
S'%s.d'
p113
stp114
a(S'ldflags'
p115
g2
(g3
g4
(lp116
g6
aS'-Wl,-Os'
p117
aS'-Wl,--gc-sections'
p118
atp119
Rp120
tp121
a(S'arduino_lib_version'
p122
g2
(cino.environment
Version
p123
c__builtin__
tuple
p124
(I1
I0
I5
tp125
tp126
Rp127
tp128
a(S'objcopy'
p129
S'/usr/share/arduino/hardware/tools/avr/bin/avr-objcopy'
p130
tp131
a(S'board_models'
p132
cino.environment
BoardModels
p133
((lp134
(lp135
S'uno'
p136
a(dp137
S'_coredir'
p138
S'/usr/share/arduino/hardware/arduino'
p139
sS'bootloader'
p140
(dp141
S'extended_fuses'
p142
S'0x05'
p143
sS'high_fuses'
p144
S'0xde'
p145
sS'low_fuses'
p146
S'0xff'
p147
sS'lock_bits'
p148
S'0x0F'
p149
sS'file'
p150
S'optiboot_atmega328.hex'
p151
sS'path'
p152
S'optiboot'
p153
sS'unlock_bits'
p154
S'0x3F'
p155
ssS'build'
p156
(dp157
S'core'
p158
S'arduino'
p159
sS'mcu'
p160
S'atmega328p'
p161
sS'f_cpu'
p162
S'16000000L'
p163
sS'variant'
p164
S'standard'
p165
ssS'name'
p166
S'Arduino Uno'
p167
sS'upload'
p168
(dp169
S'protocol'
p170
S'arduino'
p171
sS'maximum_size'
p172
S'32256'
p173
sS'speed'
p174
S'115200'
p175
ssaa(lp176
S'atmega328'
p177
a(dp178
g138
S'/usr/share/arduino/hardware/arduino'
p179
sS'bootloader'
p180
(dp181
S'extended_fuses'
p182
S'0x05'
p183
sS'high_fuses'
p184
S'0xDA'
p185
sS'low_fuses'
p186
S'0xFF'
p187
sS'lock_bits'
p188
S'0x0F'
p189
sS'file'
p190
S'ATmegaBOOT_168_atmega328.hex'
p191
sS'path'
p192
S'atmega'
p193
sS'unlock_bits'
p194
S'0x3F'
p195
ssS'build'
p196
(dp197
S'core'
p198
S'arduino'
p199
sS'mcu'
p200
S'atmega328p'
p201
sS'f_cpu'
p202
S'16000000L'
p203
sS'variant'
p204
S'standard'
p205
ssS'name'
p206
S'Arduino Duemilanove w/ ATmega328'
p207
sS'upload'
p208
(dp209
S'protocol'
p210
S'arduino'
p211
sS'maximum_size'
p212
S'30720'
p213
sS'speed'
p214
S'57600'
p215
ssaa(lp216
S'diecimila'
p217
a(dp218
g138
S'/usr/share/arduino/hardware/arduino'
p219
sS'bootloader'
p220
(dp221
S'extended_fuses'
p222
S'0x00'
p223
sS'high_fuses'
p224
S'0xdd'
p225
sS'low_fuses'
p226
S'0xff'
p227
sS'lock_bits'
p228
S'0x0F'
p229
sS'file'
p230
S'ATmegaBOOT_168_diecimila.hex'
p231
sS'path'
p232
S'atmega'
p233
sS'unlock_bits'
p234
S'0x3F'
p235
ssS'build'
p236
(dp237
S'core'
p238
S'arduino'
p239
sS'mcu'
p240
S'atmega168'
p241
sS'f_cpu'
p242
S'16000000L'
p243
sS'variant'
p244
S'standard'
p245
ssS'name'
p246
S'Arduino Diecimila or Duemilanove w/ ATmega168'
p247
sS'upload'
p248
(dp249
S'protocol'
p250
S'arduino'
p251
sS'maximum_size'
p252
S'14336'
p253
sS'speed'
p254
S'19200'
p255
ssaa(lp256
S'nano328'
p257
a(dp258
g138
S'/usr/share/arduino/hardware/arduino'
p259
sS'bootloader'
p260
(dp261
S'extended_fuses'
p262
S'0x05'
p263
sS'high_fuses'
p264
S'0xDA'
p265
sS'low_fuses'
p266
S'0xFF'
p267
sS'lock_bits'
p268
S'0x0F'
p269
sS'file'
p270
S'ATmegaBOOT_168_atmega328.hex'
p271
sS'path'
p272
S'atmega'
p273
sS'unlock_bits'
p274
S'0x3F'
p275
ssS'build'
p276
(dp277
S'core'
p278
S'arduino'
p279
sS'mcu'
p280
S'atmega328p'
p281
sS'f_cpu'
p282
S'16000000L'
p283
sS'variant'
p284
S'eightanaloginputs'
p285
ssS'name'
p286
S'Arduino Nano w/ ATmega328'
p287
sS'upload'
p288
(dp289
S'protocol'
p290
S'arduino'
p291
sS'maximum_size'
p292
S'30720'
p293
sS'speed'
p294
S'57600'
p295
ssaa(lp296
S'nano'
p297
a(dp298
g138
S'/usr/share/arduino/hardware/arduino'
p299
sS'bootloader'
p300
(dp301
S'extended_fuses'
p302
S'0x00'
p303
sS'high_fuses'
p304
S'0xdd'
p305
sS'low_fuses'
p306
S'0xff'
p307
sS'lock_bits'
p308
S'0x0F'
p309
sS'file'
p310
S'ATmegaBOOT_168_diecimila.hex'
p311
sS'path'
p312
S'atmega'
p313
sS'unlock_bits'
p314
S'0x3F'
p315
ssS'build'
p316
(dp317
S'core'
p318
S'arduino'
p319
sS'mcu'
p320
S'atmega168'
p321
sS'f_cpu'
p322
S'16000000L'
p323
sS'variant'
p324
S'eightanaloginputs'
p325
ssS'name'
p326
S'Arduino Nano w/ ATmega168'
p327
sS'upload'
p328
(dp329
S'protocol'
p330
S'arduino'
p331
sS'maximum_size'
p332
S'14336'
p333
sS'speed'
p334
S'19200'
p335
ssaa(lp336
S'mega2560'
p337
a(dp338
g138
S'/usr/share/arduino/hardware/arduino'
p339
sS'bootloader'
p340
(dp341
S'extended_fuses'
p342
S'0xFD'
p343
sS'high_fuses'
p344
S'0xD8'
p345
sS'low_fuses'
p346
S'0xFF'
p347
sS'lock_bits'
p348
S'0x0F'
p349
sS'file'
p350
S'stk500boot_v2_mega2560.hex'
p351
sS'path'
p352
S'stk500v2'
p353
sS'unlock_bits'
p354
S'0x3F'
p355
ssS'build'
p356
(dp357
S'core'
p358
S'arduino'
p359
sS'mcu'
p360
S'atmega2560'
p361
sS'f_cpu'
p362
S'16000000L'
p363
sS'variant'
p364
S'mega'
p365
ssS'name'
p366
S'Arduino Mega 2560 or Mega ADK'
p367
sS'upload'
p368
(dp369
S'protocol'
p370
S'wiring'
p371
sS'maximum_size'
p372
S'258048'
p373
sS'speed'
p374
S'115200'
p375
ssaa(lp376
S'mega'
p377
a(dp378
g138
S'/usr/share/arduino/hardware/arduino'
p379
sS'bootloader'
p380
(dp381
S'extended_fuses'
p382
S'0xF5'
p383
sS'high_fuses'
p384
S'0xDA'
p385
sS'low_fuses'
p386
S'0xFF'
p387
sS'lock_bits'
p388
S'0x0F'
p389
sS'file'
p390
S'ATmegaBOOT_168_atmega1280.hex'
p391
sS'path'
p392
S'atmega'
p393
sS'unlock_bits'
p394
S'0x3F'
p395
ssS'build'
p396
(dp397
S'core'
p398
S'arduino'
p399
sS'mcu'
p400
S'atmega1280'
p401
sS'f_cpu'
p402
S'16000000L'
p403
sS'variant'
p404
S'mega'
p405
ssS'name'
p406
S'Arduino Mega (ATmega1280)'
p407
sS'upload'
p408
(dp409
S'protocol'
p410
S'arduino'
p411
sS'maximum_size'
p412
S'126976'
p413
sS'speed'
p414
S'57600'
p415
ssaa(lp416
S'leonardo'
p417
a(dp418
g138
S'/usr/share/arduino/hardware/arduino'
p419
sS'bootloader'
p420
(dp421
S'extended_fuses'
p422
S'0xcb'
p423
sS'high_fuses'
p424
S'0xd8'
p425
sS'low_fuses'
p426
S'0xff'
p427
sS'lock_bits'
p428
S'0x2F'
p429
sS'file'
p430
S'Caterina-Leonardo.hex'
p431
sS'path'
p432
S'caterina'
p433
sS'unlock_bits'
p434
S'0x3F'
p435
ssS'build'
p436
(dp437
S'core'
p438
S'arduino'
p439
sS'f_cpu'
p440
S'16000000L'
p441
sS'vid'
p442
S'0x2341'
p443
sS'pid'
p444
S'0x8036'
p445
sS'variant'
p446
S'leonardo'
p447
sS'mcu'
p448
S'atmega32u4'
p449
ssS'name'
p450
S'Arduino Leonardo'
p451
sS'upload'
p452
(dp453
S'protocol'
p454
S'avr109'
p455
sS'maximum_size'
p456
S'28672'
p457
sS'speed'
p458
S'57600'
p459
sS'disable_flushing'
p460
S'true'
p461
ssaa(lp462
S'esplora'
p463
a(dp464
g138
S'/usr/share/arduino/hardware/arduino'
p465
sS'bootloader'
p466
(dp467
S'extended_fuses'
p468
S'0xcb'
p469
sS'high_fuses'
p470
S'0xd8'
p471
sS'low_fuses'
p472
S'0xff'
p473
sS'lock_bits'
p474
S'0x2F'
p475
sS'file'
p476
S'Caterina-Esplora.hex'
p477
sS'path'
p478
S'caterina'
p479
sS'unlock_bits'
p480
S'0x3F'
p481
ssS'build'
p482
(dp483
S'core'
p484
S'arduino'
p485
sS'f_cpu'
p486
S'16000000L'
p487
sS'vid'
p488
S'0x2341'
p489
sS'pid'
p490
S'0x803C'
p491
sS'variant'
p492
S'leonardo'
p493
sS'mcu'
p494
S'atmega32u4'
p495
ssS'name'
p496
S'Arduino Esplora'
p497
sS'upload'
p498
(dp499
S'protocol'
p500
S'avr109'
p501
sS'maximum_size'
p502
S'28672'
p503
sS'speed'
p504
S'57600'
p505
sS'disable_flushing'
p506
S'true'
p507
ssaa(lp508
S'micro'
p509
a(dp510
g138
S'/usr/share/arduino/hardware/arduino'
p511
sS'bootloader'
p512
(dp513
S'extended_fuses'
p514
S'0xcb'
p515
sS'high_fuses'
p516
S'0xd8'
p517
sS'low_fuses'
p518
S'0xff'
p519
sS'lock_bits'
p520
S'0x2F'
p521
sS'file'
p522
S'Caterina-Micro.hex'
p523
sS'path'
p524
S'caterina'
p525
sS'unlock_bits'
p526
S'0x3F'
p527
ssS'build'
p528
(dp529
S'core'
p530
S'arduino'
p531
sS'f_cpu'
p532
S'16000000L'
p533
sS'vid'
p534
S'0x2341'
p535
sS'pid'
p536
S'0x8037'
p537
sS'variant'
p538
S'micro'
p539
sS'mcu'
p540
S'atmega32u4'
p541
ssS'name'
p542
S'Arduino Micro'
p543
sS'upload'
p544
(dp545
S'protocol'
p546
S'avr109'
p547
sS'maximum_size'
p548
S'28672'
p549
sS'speed'
p550
S'57600'
p551
sS'disable_flushing'
p552
S'true'
p553
ssaa(lp554
S'mini328'
p555
a(dp556
g138
S'/usr/share/arduino/hardware/arduino'
p557
sS'bootloader'
p558
(dp559
S'extended_fuses'
p560
S'0x05'
p561
sS'high_fuses'
p562
S'0xd8'
p563
sS'low_fuses'
p564
S'0xff'
p565
sS'lock_bits'
p566
S'0x0F'
p567
sS'file'
p568
S'optiboot_atmega328-Mini.hex'
p569
sS'path'
p570
S'optiboot'
p571
sS'unlock_bits'
p572
S'0x3F'
p573
ssS'build'
p574
(dp575
S'core'
p576
S'arduino'
p577
sS'mcu'
p578
S'atmega328p'
p579
sS'f_cpu'
p580
S'16000000L'
p581
sS'variant'
p582
S'eightanaloginputs'
p583
ssS'name'
p584
S'Arduino Mini w/ ATmega328'
p585
sS'upload'
p586
(dp587
S'protocol'
p588
S'arduino'
p589
sS'maximum_size'
p590
S'28672'
p591
sS'speed'
p592
S'115200'
p593
ssaa(lp594
S'mini'
p595
a(dp596
g138
S'/usr/share/arduino/hardware/arduino'
p597
sS'bootloader'
p598
(dp599
S'extended_fuses'
p600
S'0x00'
p601
sS'high_fuses'
p602
S'0xdd'
p603
sS'low_fuses'
p604
S'0xff'
p605
sS'lock_bits'
p606
S'0x0F'
p607
sS'file'
p608
S'ATmegaBOOT_168_ng.hex'
p609
sS'path'
p610
S'atmega'
p611
sS'unlock_bits'
p612
S'0x3F'
p613
ssS'build'
p614
(dp615
S'core'
p616
S'arduino'
p617
sS'mcu'
p618
S'atmega168'
p619
sS'f_cpu'
p620
S'16000000L'
p621
sS'variant'
p622
S'eightanaloginputs'
p623
ssS'name'
p624
S'Arduino Mini w/ ATmega168'
p625
sS'upload'
p626
(dp627
S'protocol'
p628
S'arduino'
p629
sS'maximum_size'
p630
S'14336'
p631
sS'speed'
p632
S'19200'
p633
ssaa(lp634
S'ethernet'
p635
a(dp636
g138
S'/usr/share/arduino/hardware/arduino'
p637
sS'bootloader'
p638
(dp639
S'extended_fuses'
p640
S'0x05'
p641
sS'high_fuses'
p642
S'0xde'
p643
sS'low_fuses'
p644
S'0xff'
p645
sS'lock_bits'
p646
S'0x0F'
p647
sS'file'
p648
S'optiboot_atmega328.hex'
p649
sS'path'
p650
S'optiboot'
p651
sS'unlock_bits'
p652
S'0x3F'
p653
ssS'build'
p654
(dp655
S'variant'
p656
S'standard'
p657
sS'mcu'
p658
S'atmega328p'
p659
sS'f_cpu'
p660
S'16000000L'
p661
sS'core'
p662
S'arduino'
p663
ssS'name'
p664
S'Arduino Ethernet'
p665
sS'upload'
p666
(dp667
S'protocol'
p668
S'arduino'
p669
sS'maximum_size'
p670
S'32256'
p671
sS'speed'
p672
S'115200'
p673
ssaa(lp674
S'fio'
p675
a(dp676
g138
S'/usr/share/arduino/hardware/arduino'
p677
sS'bootloader'
p678
(dp679
S'extended_fuses'
p680
S'0x05'
p681
sS'high_fuses'
p682
S'0xDA'
p683
sS'low_fuses'
p684
S'0xFF'
p685
sS'lock_bits'
p686
S'0x0F'
p687
sS'file'
p688
S'ATmegaBOOT_168_atmega328_pro_8MHz.hex'
p689
sS'path'
p690
S'arduino:atmega'
p691
sS'unlock_bits'
p692
S'0x3F'
p693
ssS'build'
p694
(dp695
S'core'
p696
S'arduino'
p697
sS'mcu'
p698
S'atmega328p'
p699
sS'f_cpu'
p700
S'8000000L'
p701
sS'variant'
p702
S'eightanaloginputs'
p703
ssS'name'
p704
S'Arduino Fio'
p705
sS'upload'
p706
(dp707
S'protocol'
p708
S'arduino'
p709
sS'maximum_size'
p710
S'30720'
p711
sS'speed'
p712
S'57600'
p713
ssaa(lp714
S'bt328'
p715
a(dp716
g138
S'/usr/share/arduino/hardware/arduino'
p717
sS'bootloader'
p718
(dp719
S'extended_fuses'
p720
S'0x05'
p721
sS'high_fuses'
p722
S'0xd8'
p723
sS'low_fuses'
p724
S'0xff'
p725
sS'lock_bits'
p726
S'0x0F'
p727
sS'file'
p728
S'ATmegaBOOT_168_atmega328_bt.hex'
p729
sS'path'
p730
S'bt'
p731
sS'unlock_bits'
p732
S'0x3F'
p733
ssS'build'
p734
(dp735
S'core'
p736
S'arduino'
p737
sS'mcu'
p738
S'atmega328p'
p739
sS'f_cpu'
p740
S'16000000L'
p741
sS'variant'
p742
S'eightanaloginputs'
p743
ssS'name'
p744
S'Arduino BT w/ ATmega328'
p745
sS'upload'
p746
(dp747
S'protocol'
p748
S'arduino'
p749
sS'maximum_size'
p750
S'28672'
p751
sS'speed'
p752
S'19200'
p753
sS'disable_flushing'
p754
S'true'
p755
ssaa(lp756
S'bt'
p757
a(dp758
g138
S'/usr/share/arduino/hardware/arduino'
p759
sS'bootloader'
p760
(dp761
S'extended_fuses'
p762
S'0x00'
p763
sS'high_fuses'
p764
S'0xdd'
p765
sS'low_fuses'
p766
S'0xff'
p767
sS'lock_bits'
p768
S'0x0F'
p769
sS'file'
p770
S'ATmegaBOOT_168.hex'
p771
sS'path'
p772
S'bt'
p773
sS'unlock_bits'
p774
S'0x3F'
p775
ssS'build'
p776
(dp777
S'core'
p778
S'arduino'
p779
sS'mcu'
p780
S'atmega168'
p781
sS'f_cpu'
p782
S'16000000L'
p783
sS'variant'
p784
S'eightanaloginputs'
p785
ssS'name'
p786
S'Arduino BT w/ ATmega168'
p787
sS'upload'
p788
(dp789
S'protocol'
p790
S'arduino'
p791
sS'maximum_size'
p792
S'14336'
p793
sS'speed'
p794
S'19200'
p795
sS'disable_flushing'
p796
S'true'
p797
ssaa(lp798
S'LilyPadUSB'
p799
a(dp800
g138
S'/usr/share/arduino/hardware/arduino'
p801
sS'bootloader'
p802
(dp803
S'extended_fuses'
p804
S'0xce'
p805
sS'high_fuses'
p806
S'0xd8'
p807
sS'low_fuses'
p808
S'0xff'
p809
sS'lock_bits'
p810
S'0x2F'
p811
sS'file'
p812
S'Caterina-LilyPadUSB.hex'
p813
sS'path'
p814
S'caterina-LilyPadUSB'
p815
sS'unlock_bits'
p816
S'0x3F'
p817
ssS'build'
p818
(dp819
S'core'
p820
S'arduino'
p821
sS'f_cpu'
p822
S'8000000L'
p823
sS'vid'
p824
S'0x1B4F'
p825
sS'pid'
p826
S'0x9208'
p827
sS'variant'
p828
S'leonardo'
p829
sS'mcu'
p830
S'atmega32u4'
p831
ssS'name'
p832
S'LilyPad Arduino USB'
p833
sS'upload'
p834
(dp835
S'protocol'
p836
S'avr109'
p837
sS'maximum_size'
p838
S'28672'
p839
sS'speed'
p840
S'57600'
p841
sS'disable_flushing'
p842
S'true'
p843
ssaa(lp844
S'lilypad328'
p845
a(dp846
g138
S'/usr/share/arduino/hardware/arduino'
p847
sS'bootloader'
p848
(dp849
S'extended_fuses'
p850
S'0x05'
p851
sS'high_fuses'
p852
S'0xDA'
p853
sS'low_fuses'
p854
S'0xFF'
p855
sS'lock_bits'
p856
S'0x0F'
p857
sS'file'
p858
S'ATmegaBOOT_168_atmega328_pro_8MHz.hex'
p859
sS'path'
p860
S'atmega'
p861
sS'unlock_bits'
p862
S'0x3F'
p863
ssS'build'
p864
(dp865
S'core'
p866
S'arduino'
p867
sS'mcu'
p868
S'atmega328p'
p869
sS'f_cpu'
p870
S'8000000L'
p871
sS'variant'
p872
S'standard'
p873
ssS'name'
p874
S'LilyPad Arduino w/ ATmega328'
p875
sS'upload'
p876
(dp877
S'protocol'
p878
S'arduino'
p879
sS'maximum_size'
p880
S'30720'
p881
sS'speed'
p882
S'57600'
p883
ssaa(lp884
S'lilypad'
p885
a(dp886
g138
S'/usr/share/arduino/hardware/arduino'
p887
sS'bootloader'
p888
(dp889
S'extended_fuses'
p890
S'0x00'
p891
sS'high_fuses'
p892
S'0xdd'
p893
sS'low_fuses'
p894
S'0xe2'
p895
sS'lock_bits'
p896
S'0x0F'
p897
sS'file'
p898
S'LilyPadBOOT_168.hex'
p899
sS'path'
p900
S'lilypad'
p901
sS'unlock_bits'
p902
S'0x3F'
p903
ssS'build'
p904
(dp905
S'core'
p906
S'arduino'
p907
sS'mcu'
p908
S'atmega168'
p909
sS'f_cpu'
p910
S'8000000L'
p911
sS'variant'
p912
S'standard'
p913
ssS'name'
p914
S'LilyPad Arduino w/ ATmega168'
p915
sS'upload'
p916
(dp917
S'protocol'
p918
S'arduino'
p919
sS'maximum_size'
p920
S'14336'
p921
sS'speed'
p922
S'19200'
p923
ssaa(lp924
S'pro5v328'
p925
a(dp926
g138
S'/usr/share/arduino/hardware/arduino'
p927
sS'bootloader'
p928
(dp929
S'extended_fuses'
p930
S'0x05'
p931
sS'high_fuses'
p932
S'0xDA'
p933
sS'low_fuses'
p934
S'0xFF'
p935
sS'lock_bits'
p936
S'0x0F'
p937
sS'file'
p938
S'ATmegaBOOT_168_atmega328.hex'
p939
sS'path'
p940
S'atmega'
p941
sS'unlock_bits'
p942
S'0x3F'
p943
ssS'build'
p944
(dp945
S'core'
p946
S'arduino'
p947
sS'mcu'
p948
S'atmega328p'
p949
sS'f_cpu'
p950
S'16000000L'
p951
sS'variant'
p952
S'standard'
p953
ssS'name'
p954
S'Arduino Pro or Pro Mini (5V, 16 MHz) w/ ATmega328'
p955
sS'upload'
p956
(dp957
S'protocol'
p958
S'arduino'
p959
sS'maximum_size'
p960
S'30720'
p961
sS'speed'
p962
S'57600'
p963
ssaa(lp964
S'pro5v'
p965
a(dp966
g138
S'/usr/share/arduino/hardware/arduino'
p967
sS'bootloader'
p968
(dp969
S'extended_fuses'
p970
S'0x00'
p971
sS'high_fuses'
p972
S'0xdd'
p973
sS'low_fuses'
p974
S'0xff'
p975
sS'lock_bits'
p976
S'0x0F'
p977
sS'file'
p978
S'ATmegaBOOT_168_diecimila.hex'
p979
sS'path'
p980
S'atmega'
p981
sS'unlock_bits'
p982
S'0x3F'
p983
ssS'build'
p984
(dp985
S'core'
p986
S'arduino'
p987
sS'mcu'
p988
S'atmega168'
p989
sS'f_cpu'
p990
S'16000000L'
p991
sS'variant'
p992
S'standard'
p993
ssS'name'
p994
S'Arduino Pro or Pro Mini (5V, 16 MHz) w/ ATmega168'
p995
sS'upload'
p996
(dp997
S'protocol'
p998
S'arduino'
p999
sS'maximum_size'
p1000
S'14336'
p1001
sS'speed'
p1002
S'19200'
p1003
ssaa(lp1004
S'pro328'
p1005
a(dp1006
g138
S'/usr/share/arduino/hardware/arduino'
p1007
sS'bootloader'
p1008
(dp1009
S'extended_fuses'
p1010
S'0x05'
p1011
sS'high_fuses'
p1012
S'0xDA'
p1013
sS'low_fuses'
p1014
S'0xFF'
p1015
sS'lock_bits'
p1016
S'0x0F'
p1017
sS'file'
p1018
S'ATmegaBOOT_168_atmega328_pro_8MHz.hex'
p1019
sS'path'
p1020
S'atmega'
p1021
sS'unlock_bits'
p1022
S'0x3F'
p1023
ssS'build'
p1024
(dp1025
S'core'
p1026
S'arduino'
p1027
sS'mcu'
p1028
S'atmega328p'
p1029
sS'f_cpu'
p1030
S'8000000L'
p1031
sS'variant'
p1032
S'standard'
p1033
ssS'name'
p1034
S'Arduino Pro or Pro Mini (3.3V, 8 MHz) w/ ATmega328'
p1035
sS'upload'
p1036
(dp1037
S'protocol'
p1038
S'arduino'
p1039
sS'maximum_size'
p1040
S'30720'
p1041
sS'speed'
p1042
S'57600'
p1043
ssaa(lp1044
S'pro'
p1045
a(dp1046
g138
S'/usr/share/arduino/hardware/arduino'
p1047
sS'bootloader'
p1048
(dp1049
S'extended_fuses'
p1050
S'0x00'
p1051
sS'high_fuses'
p1052
S'0xdd'
p1053
sS'low_fuses'
p1054
S'0xc6'
p1055
sS'lock_bits'
p1056
S'0x0F'
p1057
sS'file'
p1058
S'ATmegaBOOT_168_pro_8MHz.hex'
p1059
sS'path'
p1060
S'atmega'
p1061
sS'unlock_bits'
p1062
S'0x3F'
p1063
ssS'build'
p1064
(dp1065
S'core'
p1066
S'arduino'
p1067
sS'mcu'
p1068
S'atmega168'
p1069
sS'f_cpu'
p1070
S'8000000L'
p1071
sS'variant'
p1072
S'standard'
p1073
ssS'name'
p1074
S'Arduino Pro or Pro Mini (3.3V, 8 MHz) w/ ATmega168'
p1075
sS'upload'
p1076
(dp1077
S'protocol'
p1078
S'arduino'
p1079
sS'maximum_size'
p1080
S'14336'
p1081
sS'speed'
p1082
S'19200'
p1083
ssaa(lp1084
S'atmega168'
p1085
a(dp1086
g138
S'/usr/share/arduino/hardware/arduino'
p1087
sS'bootloader'
p1088
(dp1089
S'extended_fuses'
p1090
S'0x00'
p1091
sS'high_fuses'
p1092
S'0xdd'
p1093
sS'low_fuses'
p1094
S'0xff'
p1095
sS'lock_bits'
p1096
S'0x0F'
p1097
sS'file'
p1098
S'ATmegaBOOT_168_ng.hex'
p1099
sS'path'
p1100
S'atmega'
p1101
sS'unlock_bits'
p1102
S'0x3F'
p1103
ssS'build'
p1104
(dp1105
S'core'
p1106
S'arduino'
p1107
sS'mcu'
p1108
S'atmega168'
p1109
sS'f_cpu'
p1110
S'16000000L'
p1111
sS'variant'
p1112
S'standard'
p1113
ssS'name'
p1114
S'Arduino NG or older w/ ATmega168'
p1115
sS'upload'
p1116
(dp1117
S'protocol'
p1118
S'arduino'
p1119
sS'maximum_size'
p1120
S'14336'
p1121
sS'speed'
p1122
S'19200'
p1123
ssaa(lp1124
S'atmega8'
p1125
a(dp1126
g138
S'/usr/share/arduino/hardware/arduino'
p1127
sS'bootloader'
p1128
(dp1129
S'high_fuses'
p1130
S'0xca'
p1131
sS'low_fuses'
p1132
S'0xdf'
p1133
sS'lock_bits'
p1134
S'0x0F'
p1135
sS'file'
p1136
S'ATmegaBOOT-prod-firmware-2009-11-07.hex'
p1137
sS'path'
p1138
S'atmega8'
p1139
sS'unlock_bits'
p1140
S'0x3F'
p1141
ssS'build'
p1142
(dp1143
S'core'
p1144
S'arduino'
p1145
sS'mcu'
p1146
S'atmega8'
p1147
sS'f_cpu'
p1148
S'16000000L'
p1149
sS'variant'
p1150
S'standard'
p1151
ssS'name'
p1152
S'Arduino NG or older w/ ATmega8'
p1153
sS'upload'
p1154
(dp1155
S'protocol'
p1156
S'arduino'
p1157
sS'maximum_size'
p1158
S'7168'
p1159
sS'speed'
p1160
S'19200'
p1161
ssaa(lp1162
S'robotControl'
p1163
a(dp1164
g138
S'/usr/share/arduino/hardware/arduino'
p1165
sS'bootloader'
p1166
(dp1167
S'extended_fuses'
p1168
S'0xcb'
p1169
sS'high_fuses'
p1170
S'0xd8'
p1171
sS'low_fuses'
p1172
S'0xff'
p1173
sS'lock_bits'
p1174
S'0x2F'
p1175
sS'file'
p1176
S'Caterina-Robot-Control.hex'
p1177
sS'path'
p1178
S'caterina-Arduino_Robot'
p1179
sS'unlock_bits'
p1180
S'0x3F'
p1181
ssS'build'
p1182
(dp1183
S'core'
p1184
S'robot'
p1185
sS'f_cpu'
p1186
S'16000000L'
p1187
sS'vid'
p1188
S'0x2341'
p1189
sS'pid'
p1190
S'0x8038'
p1191
sS'variant'
p1192
S'robot_control'
p1193
sS'mcu'
p1194
S'atmega32u4'
p1195
ssS'name'
p1196
S'Arduino Robot Control'
p1197
sS'upload'
p1198
(dp1199
S'protocol'
p1200
S'avr109'
p1201
sS'maximum_size'
p1202
S'28672'
p1203
sS'speed'
p1204
S'57600'
p1205
sS'disable_flushing'
p1206
S'true'
p1207
ssaa(lp1208
S'robotMotor'
p1209
a(dp1210
g138
S'/usr/share/arduino/hardware/arduino'
p1211
sS'bootloader'
p1212
(dp1213
S'extended_fuses'
p1214
S'0xcb'
p1215
sS'high_fuses'
p1216
S'0xd8'
p1217
sS'low_fuses'
p1218
S'0xff'
p1219
sS'lock_bits'
p1220
S'0x2F'
p1221
sS'file'
p1222
S'Caterina-Robot-Motor.hex'
p1223
sS'path'
p1224
S'caterina-Arduino_Robot'
p1225
sS'unlock_bits'
p1226
S'0x3F'
p1227
ssS'build'
p1228
(dp1229
S'core'
p1230
S'robot'
p1231
sS'f_cpu'
p1232
S'16000000L'
p1233
sS'vid'
p1234
S'0x2341'
p1235
sS'pid'
p1236
S'0x8039'
p1237
sS'variant'
p1238
S'robot_motor'
p1239
sS'mcu'
p1240
S'atmega32u4'
p1241
ssS'name'
p1242
S'Arduino Robot Motor'
p1243
sS'upload'
p1244
(dp1245
S'protocol'
p1246
S'avr109'
p1247
sS'maximum_size'
p1248
S'28672'
p1249
sS'speed'
p1250
S'57600'
p1251
sS'disable_flushing'
p1252
S'true'
p1253
ssaatp1254
Rp1255
(dp1256
S'default'
p1257
S'uno'
p1258
sbtp1259
a(S'used_libs'
p1260
(lp1261
S'/usr/share/arduino/hardware/arduino/cores/arduino'
p1262
aS'lib/ros_lib'
p1263
atp1264
a(S'make'
p1265
S'/usr/share/arduino/hardware/tools/avr/bin/make'
p1266
tp1267
a(S'arduino_libraries_dir'
p1268
S'/usr/share/arduino/libraries'
p1269
tp1270
a(S'cc'
p1271
S'/usr/share/arduino/hardware/tools/avr/bin/avr-gcc'
p1272
tp1273
a(S'cflags'
p1274
g2
(g3
g4
(lp1275
tp1276
Rp1277
tp1278
a(S'cxxflags'
p1279
g2
(g3
g4
(lp1280
S'-fno-exceptions'
p1281
atp1282
Rp1283
tp1284
a(S'arduino_variants_dir'
p1285
S'/usr/share/arduino/hardware/arduino/variants'
p1286
tp1287
a(S'serial'
p1288
S'/usr/bin/picocom'
p1289
tp1290
a(S'stty'
p1291
S'/bin/stty'
p1292
tp1293
a(S'version.txt'
p1294
S'/usr/share/arduino/lib/version.txt'
p1295
tp1296
a(S'arduino_core_dir'
p1297
g1262
tp1298
a(S'boards.txt'
p1299
(lp1300
S'/usr/share/arduino/hardware/arduino/boards.txt'
p1301
atp1302
a(S'avrdude.conf'
p1303
S'/usr/share/arduino/hardware/tools/avrdude.conf'
p1304
tp1305
a(S'deps'
p1306
g2
(g3
g4
(lp1307
S'.build/mega2560/src/dependencies.d'
p1308
aS'.build/mega2560/arduino/dependencies.d'
p1309
aS'.build/mega2560/ros_lib/dependencies.d'
p1310
atp1311
Rp1312
tp1313
a.